---
triple:          'x86_64-apple-darwin'
binary-path:     '/Users/justin/Documents/Documents - Justin''s MacBook Pro/Education/2-1/ooprog/midterms/output/AirHouse'
relocations:
  - { offsetInCU: 0x5014, offset: 0x5014, size: 0x8, addend: 0x0, symName: __ZNSt3__124__put_character_sequenceB8ue170006IcNS_11char_traitsIcEEEERNS_13basic_ostreamIT_T0_EES7_PKS4_m, symObjAddr: 0xB220, symBinAddr: 0x10000BB70, symSize: 0x1F0 }
  - { offsetInCU: 0x6E60, offset: 0x6E60, size: 0x8, addend: 0x0, symName: __ZNSt3__1neB8ue170006IPcEEbRKNS_11__wrap_iterIT_EES6_, symObjAddr: 0x1B0, symBinAddr: 0x100000B00, symSize: 0x30 }
  - { offsetInCU: 0x6EA3, offset: 0x6EA3, size: 0x8, addend: 0x0, symName: __ZNSt3__1eqB8ue170006IcNS_11char_traitsIcEENS_9allocatorIcEEEEbRKNS_12basic_stringIT_T0_T1_EEPKS6_, symObjAddr: 0x540, symBinAddr: 0x100000E90, symSize: 0xB0 }
  - { offsetInCU: 0x6F0A, offset: 0x6F0A, size: 0x8, addend: 0x0, symName: __ZNSt3__1lsB8ue170006INS_11char_traitsIcEEEERNS_13basic_ostreamIcT_EES6_PKc, symObjAddr: 0x6250, symBinAddr: 0x100006BA0, symSize: 0x40 }
  - { offsetInCU: 0x6F50, offset: 0x6F50, size: 0x8, addend: 0x0, symName: __ZNSt3__14endlB8ue170006IcNS_11char_traitsIcEEEERNS_13basic_ostreamIT_T0_EES7_, symObjAddr: 0x62B0, symBinAddr: 0x100006C00, symSize: 0x50 }
  - { offsetInCU: 0x6F90, offset: 0x6F90, size: 0x8, addend: 0x0, symName: __ZNSt3__17getlineB8ue170006IcNS_11char_traitsIcEENS_9allocatorIcEEEERNS_13basic_istreamIT_T0_EES9_RNS_12basic_stringIS6_S7_T1_EE, symObjAddr: 0x6340, symBinAddr: 0x100006C90, symSize: 0x50 }
  - { offsetInCU: 0x6FE8, offset: 0x6FE8, size: 0x8, addend: 0x0, symName: __ZNSt3__1neB8ue170006IP4ItemEEbRKNS_11__wrap_iterIT_EES7_, symObjAddr: 0x6400, symBinAddr: 0x100006D50, symSize: 0x30 }
  - { offsetInCU: 0x702B, offset: 0x702B, size: 0x8, addend: 0x0, symName: __ZNSt3__1eqB8ue170006INS_9allocatorIcEEEEbRKNS_12basic_stringIcNS_11char_traitsIcEET_EES9_, symObjAddr: 0x6480, symBinAddr: 0x100006DD0, symSize: 0x110 }
  - { offsetInCU: 0x709E, offset: 0x709E, size: 0x8, addend: 0x0, symName: __ZNSt3__1rsB8ue170006IcNS_11char_traitsIcEENS_9allocatorIcEEEERNS_13basic_istreamIT_T0_EES9_RNS_12basic_stringIS6_S7_T1_EE, symObjAddr: 0x65B0, symBinAddr: 0x100006F00, symSize: 0x2E0 }
  - { offsetInCU: 0x716D, offset: 0x716D, size: 0x8, addend: 0x0, symName: __ZNSt3__1lsB8ue170006IcNS_11char_traitsIcEENS_9allocatorIcEEEERNS_13basic_ostreamIT_T0_EES9_RKNS_12basic_stringIS6_S7_T1_EE, symObjAddr: 0x6CC0, symBinAddr: 0x100007610, symSize: 0x50 }
  - { offsetInCU: 0x71C5, offset: 0x71C5, size: 0x8, addend: 0x0, symName: __ZNSt3__112__to_addressB8ue170006I4ItemEEPT_S3_, symObjAddr: 0x8490, symBinAddr: 0x100008DE0, symSize: 0x10 }
  - { offsetInCU: 0x71FA, offset: 0x71FA, size: 0x8, addend: 0x0, symName: __ZNSt3__1lsB8ue170006IcNS_11char_traitsIcEEEERNS_13basic_ostreamIT_T0_EES7_RKNS_8__iom_t6E, symObjAddr: 0x8780, symBinAddr: 0x1000090D0, symSize: 0x40 }
  - { offsetInCU: 0x7249, offset: 0x7249, size: 0x8, addend: 0x0, symName: __ZNSt3__1lsB8ue170006IcNS_11char_traitsIcEEEERNS_13basic_ostreamIT_T0_EES7_RKNS_8__iom_t5E, symObjAddr: 0x87C0, symBinAddr: 0x100009110, symSize: 0x40 }
  - { offsetInCU: 0x7295, offset: 0x7295, size: 0x8, addend: 0x0, symName: __ZNSt3__14setwB8ue170006Ei, symObjAddr: 0x8800, symBinAddr: 0x100009150, symSize: 0x20 }
  - { offsetInCU: 0x72C3, offset: 0x72C3, size: 0x8, addend: 0x0, symName: __ZNSt3__15fixedB8ue170006ERNS_8ios_baseE, symObjAddr: 0x8850, symBinAddr: 0x1000091A0, symSize: 0x30 }
  - { offsetInCU: 0x72F1, offset: 0x72F1, size: 0x8, addend: 0x0, symName: __ZNSt3__112setprecisionB8ue170006Ei, symObjAddr: 0x8880, symBinAddr: 0x1000091D0, symSize: 0x20 }
  - { offsetInCU: 0x731D, offset: 0x731D, size: 0x8, addend: 0x0, symName: __ZNSt3__13maxB8ue170006ImEERKT_S3_S3_, symObjAddr: 0x8D80, symBinAddr: 0x1000096D0, symSize: 0x30 }
  - { offsetInCU: 0x7360, offset: 0x7360, size: 0x8, addend: 0x0, symName: __ZNSt3__13minB8ue170006ImEERKT_S3_S3_, symObjAddr: 0x8DB0, symBinAddr: 0x100009700, symSize: 0x30 }
  - { offsetInCU: 0x75A4, offset: 0x75A4, size: 0x8, addend: 0x0, symName: __ZNSt3__13minB8ue170006ImNS_6__lessIvvEEEERKT_S5_S5_T0_, symObjAddr: 0x8E30, symBinAddr: 0x100009780, symSize: 0x50 }
  - { offsetInCU: 0x7643, offset: 0x7643, size: 0x8, addend: 0x0, symName: __ZNSt3__120__throw_length_errorB8ue170006EPKc, symObjAddr: 0x8F10, symBinAddr: 0x100009860, symSize: 0x70 }
  - { offsetInCU: 0x766D, offset: 0x766D, size: 0x8, addend: 0x0, symName: __ZNSt3__13maxB8ue170006ImNS_6__lessIvvEEEERKT_S5_S5_T0_, symObjAddr: 0x9040, symBinAddr: 0x100009990, symSize: 0x50 }
  - { offsetInCU: 0x76C7, offset: 0x76C7, size: 0x8, addend: 0x0, symName: __ZNSt3__119__allocate_at_leastB8ue170006INS_9allocatorI4ItemEEEENS_19__allocation_resultINS_16allocator_traitsIT_E7pointerEEERS6_m, symObjAddr: 0x9180, symBinAddr: 0x100009AD0, symSize: 0x40 }
  - { offsetInCU: 0x770A, offset: 0x770A, size: 0x8, addend: 0x0, symName: __ZNSt3__130__libcpp_is_constant_evaluatedB8ue170006Ev, symObjAddr: 0x9320, symBinAddr: 0x100009C70, symSize: 0x10 }
  - { offsetInCU: 0x7727, offset: 0x7727, size: 0x8, addend: 0x0, symName: __ZNSt3__117__libcpp_allocateB8ue170006Emm, symObjAddr: 0x9330, symBinAddr: 0x100009C80, symSize: 0x20 }
  - { offsetInCU: 0x7764, offset: 0x7764, size: 0x8, addend: 0x0, symName: __ZNSt3__121__libcpp_operator_newB8ue170006IJmEEEPvDpT_, symObjAddr: 0x9350, symBinAddr: 0x100009CA0, symSize: 0x20 }
  - { offsetInCU: 0x779D, offset: 0x779D, size: 0x8, addend: 0x0, symName: __ZNSt3__142__uninitialized_allocator_move_if_noexceptB8ue170006INS_9allocatorI4ItemEENS_16reverse_iteratorIPS2_EES6_S6_EET2_RT_T0_T1_S7_, symObjAddr: 0x9480, symBinAddr: 0x100009DD0, symSize: 0x190 }
  - { offsetInCU: 0x783C, offset: 0x783C, size: 0x8, addend: 0x0, symName: __ZNSt3__14swapB8ue170006IP4ItemEEvRT_S4_, symObjAddr: 0x9660, symBinAddr: 0x100009FB0, symSize: 0x40 }
  - { offsetInCU: 0x788D, offset: 0x788D, size: 0x8, addend: 0x0, symName: __ZNSt3__122__make_exception_guardB8ue170006INS_29_AllocatorDestroyRangeReverseINS_9allocatorI4ItemEENS_16reverse_iteratorIPS3_EEEEEENS_28__exception_guard_exceptionsIT_EESA_, symObjAddr: 0x9780, symBinAddr: 0x10000A0D0, symSize: 0x60 }
  - { offsetInCU: 0x78C2, offset: 0x78C2, size: 0x8, addend: 0x0, symName: __ZNSt3__1neB8ue170006IP4ItemS2_EEbRKNS_16reverse_iteratorIT_EERKNS3_IT0_EE, symObjAddr: 0x9820, symBinAddr: 0x10000A170, symSize: 0x40 }
  - { offsetInCU: 0x790E, offset: 0x790E, size: 0x8, addend: 0x0, symName: __ZNSt3__112__to_addressB8ue170006INS_16reverse_iteratorIP4ItemEEvEEu7__decayIDTclsr19__to_address_helperIT_EE6__callclsr3stdE7declvalIRKS5_EEEEES7_, symObjAddr: 0x9890, symBinAddr: 0x10000A1E0, symSize: 0x20 }
  - { offsetInCU: 0x796D, offset: 0x796D, size: 0x8, addend: 0x0, symName: __ZNSt3__119__allocator_destroyB8ue170006INS_9allocatorI4ItemEENS_16reverse_iteratorINS4_IPS2_EEEES7_EEvRT_T0_T1_, symObjAddr: 0x9BB0, symBinAddr: 0x10000A500, symSize: 0x70 }
  - { offsetInCU: 0x79D0, offset: 0x79D0, size: 0x8, addend: 0x0, symName: __ZNSt3__1neB8ue170006INS_16reverse_iteratorIP4ItemEES4_EEbRKNS1_IT_EERKNS1_IT0_EE, symObjAddr: 0x9C50, symBinAddr: 0x10000A5A0, symSize: 0x50 }
  - { offsetInCU: 0x7A1C, offset: 0x7A1C, size: 0x8, addend: 0x0, symName: __ZNSt3__112__to_addressB8ue170006INS_16reverse_iteratorINS1_IP4ItemEEEEvEEu7__decayIDTclsr19__to_address_helperIT_EE6__callclsr3stdE7declvalIRKS6_EEEEES8_, symObjAddr: 0x9CD0, symBinAddr: 0x10000A620, symSize: 0x20 }
  - { offsetInCU: 0x7A7B, offset: 0x7A7B, size: 0x8, addend: 0x0, symName: __ZNSt3__119__libcpp_deallocateB8ue170006EPvmm, symObjAddr: 0xA0C0, symBinAddr: 0x10000AA10, symSize: 0x30 }
  - { offsetInCU: 0x7AC3, offset: 0x7AC3, size: 0x8, addend: 0x0, symName: __ZNSt3__127__do_deallocate_handle_sizeB8ue170006IJEEEvPvmDpT_, symObjAddr: 0xA0F0, symBinAddr: 0x10000AA40, symSize: 0x20 }
  - { offsetInCU: 0x7B01, offset: 0x7B01, size: 0x8, addend: 0x0, symName: __ZNSt3__124__libcpp_operator_deleteB8ue170006IJPvEEEvDpT_, symObjAddr: 0xA110, symBinAddr: 0x10000AA60, symSize: 0x20 }
  - { offsetInCU: 0x7B52, offset: 0x7B52, size: 0x8, addend: 0x0, symName: __ZNSt3__1miB8ue170006IPK4ItemS3_EENS_11__wrap_iterIT_E15difference_typeERKS6_RKNS4_IT0_EE, symObjAddr: 0xA450, symBinAddr: 0x10000ADA0, symSize: 0x40 }
  - { offsetInCU: 0x7B9E, offset: 0x7B9E, size: 0x8, addend: 0x0, symName: __ZNSt3__14moveB8ue170006IP4ItemS2_EET0_T_S4_S3_, symObjAddr: 0xA510, symBinAddr: 0x10000AE60, symSize: 0x40 }
  - { offsetInCU: 0x7BF8, offset: 0x7BF8, size: 0x8, addend: 0x0, symName: __ZNSt3__16__moveB8ue170006INS_17_ClassicAlgPolicyEP4ItemS3_S3_EENS_4pairIT0_T2_EES5_T1_S6_, symObjAddr: 0xA780, symBinAddr: 0x10000B0D0, symSize: 0x40 }
  - { offsetInCU: 0x7C64, offset: 0x7C64, size: 0x8, addend: 0x0, symName: __ZNSt3__123__dispatch_copy_or_moveB8ue170006INS_17_ClassicAlgPolicyENS_11__move_loopIS1_EENS_14__move_trivialEP4ItemS6_S6_EENS_4pairIT2_T4_EES8_T3_S9_, symObjAddr: 0xA7C0, symBinAddr: 0x10000B110, symSize: 0x40 }
  - { offsetInCU: 0x7CE2, offset: 0x7CE2, size: 0x8, addend: 0x0, symName: __ZNSt3__121__unwrap_and_dispatchB8ue170006INS_10__overloadINS_11__move_loopINS_17_ClassicAlgPolicyEEENS_14__move_trivialEEEP4ItemS8_S8_Li0EEENS_4pairIT0_T2_EESA_T1_SB_, symObjAddr: 0xA800, symBinAddr: 0x10000B150, symSize: 0xB0 }
  - { offsetInCU: 0x7D71, offset: 0x7D71, size: 0x8, addend: 0x0, symName: __ZNSt3__114__unwrap_rangeB8ue170006IP4ItemS2_EENS_4pairIT0_S4_EET_S6_, symObjAddr: 0xA8B0, symBinAddr: 0x10000B200, symSize: 0x50 }
  - { offsetInCU: 0x7EC5, offset: 0x7EC5, size: 0x8, addend: 0x0, symName: __ZNSt3__113__unwrap_iterB8ue170006IP4ItemNS_18__unwrap_iter_implIS2_Lb1EEELi0EEEDTclsrT0_8__unwrapclsr3stdE7declvalIT_EEEES6_, symObjAddr: 0xA980, symBinAddr: 0x10000B2D0, symSize: 0x20 }
  - { offsetInCU: 0x7F09, offset: 0x7F09, size: 0x8, addend: 0x0, symName: __ZNSt3__19make_pairB8ue170006IP4ItemS2_EENS_4pairINS_18__unwrap_ref_decayIT_E4typeENS4_IT0_E4typeEEEOS5_OS8_, symObjAddr: 0xA9A0, symBinAddr: 0x10000B2F0, symSize: 0x30 }
  - { offsetInCU: 0x7F58, offset: 0x7F58, size: 0x8, addend: 0x0, symName: __ZNSt3__114__rewrap_rangeB8ue170006IP4ItemS2_EET_S3_T0_, symObjAddr: 0xA9D0, symBinAddr: 0x10000B320, symSize: 0x30 }
  - { offsetInCU: 0x7FA4, offset: 0x7FA4, size: 0x8, addend: 0x0, symName: __ZNSt3__113__rewrap_iterB8ue170006IP4ItemS2_NS_18__unwrap_iter_implIS2_Lb1EEEEET_S5_T0_, symObjAddr: 0xAA00, symBinAddr: 0x10000B350, symSize: 0x50 }
  - { offsetInCU: 0x80B6, offset: 0x80B6, size: 0x8, addend: 0x0, symName: __ZNSt3__14swapB8ue170006I4ItemEEvRT_S3_, symObjAddr: 0xACE0, symBinAddr: 0x10000B630, symSize: 0x90 }
  - { offsetInCU: 0x813B, offset: 0x813B, size: 0x8, addend: 0x0, symName: __ZNSt3__1eqB8ue170006IPcEEbRKNS_11__wrap_iterIT_EES6_, symObjAddr: 0xB160, symBinAddr: 0x10000BAB0, symSize: 0x40 }
  - { offsetInCU: 0x817E, offset: 0x817E, size: 0x8, addend: 0x0, symName: __ZNSt3__118__constexpr_strlenB8ue170006EPKc, symObjAddr: 0xB200, symBinAddr: 0x10000BB50, symSize: 0x20 }
  - { offsetInCU: 0x81AA, offset: 0x81AA, size: 0x8, addend: 0x0, symName: __ZNSt3__116__pad_and_outputB8ue170006IcNS_11char_traitsIcEEEENS_19ostreambuf_iteratorIT_T0_EES6_PKS4_S8_S8_RNS_8ios_baseES4_, symObjAddr: 0xB460, symBinAddr: 0x10000BDB0, symSize: 0x220 }
  - { offsetInCU: 0x827A, offset: 0x827A, size: 0x8, addend: 0x0, symName: __ZNSt3__19use_facetB8ue170006INS_5ctypeIcEEEERKT_RKNS_6localeE, symObjAddr: 0xBA70, symBinAddr: 0x10000C3C0, symSize: 0x30 }
  - { offsetInCU: 0x8658, offset: 0x8658, size: 0x8, addend: 0x0, symName: __ZNSt3__112__to_addressB8ue170006IKcEEPT_S3_, symObjAddr: 0xBB00, symBinAddr: 0x10000C450, symSize: 0x10 }
  - { offsetInCU: 0x86C0, offset: 0x86C0, size: 0x8, addend: 0x0, symName: __ZNSt3__1eqB8ue170006IP4ItemEEbRKNS_11__wrap_iterIT_EES7_, symObjAddr: 0xBC10, symBinAddr: 0x10000C560, symSize: 0x40 }
  - { offsetInCU: 0x8703, offset: 0x8703, size: 0x8, addend: 0x0, symName: __ZNSt3__17getlineB8ue170006IcNS_11char_traitsIcEENS_9allocatorIcEEEERNS_13basic_istreamIT_T0_EES9_RNS_12basic_stringIS6_S7_T1_EES6_, symObjAddr: 0xC070, symBinAddr: 0x10000C9C0, symSize: 0x220 }
  - { offsetInCU: 0x9133, offset: 0x9133, size: 0x8, addend: 0x0, symName: __ZSt28__throw_bad_array_new_lengthB8ue170006v, symObjAddr: 0x92E0, symBinAddr: 0x100009C30, symSize: 0x40 }
  - { offsetInCU: 0x9781, offset: 0x9781, size: 0x8, addend: 0x0, symName: __ZNSt3__16vectorI4ItemNS_9allocatorIS1_EEE26__swap_out_circular_bufferERNS_14__split_bufferIS1_RS3_EE, symObjAddr: 0x8B70, symBinAddr: 0x1000094C0, symSize: 0x120 }
  - { offsetInCU: 0xA094, offset: 0xA094, size: 0x8, addend: 0x0, symName: __Z7isalnumi, symObjAddr: 0x5F0, symBinAddr: 0x100000F40, symSize: 0x20 }
  - { offsetInCU: 0xA0FF, offset: 0xA0FF, size: 0x8, addend: 0x0, symName: __Z7isdigiti, symObjAddr: 0x200, symBinAddr: 0x100000B50, symSize: 0x20 }
  - { offsetInCU: 0xBC36, offset: 0xBC36, size: 0x8, addend: 0x0, symName: __Z10intIsValidi, symObjAddr: 0x0, symBinAddr: 0x100000950, symSize: 0x100 }
  - { offsetInCU: 0xBCC9, offset: 0xBCC9, size: 0x8, addend: 0x0, symName: __ZNSt3__112basic_stringIcNS_11char_traitsIcEENS_9allocatorIcEEE5beginB8ue170006Ev, symObjAddr: 0x100, symBinAddr: 0x100000A50, symSize: 0x60 }
  - { offsetInCU: 0xBCEE, offset: 0xBCEE, size: 0x8, addend: 0x0, symName: __ZNSt3__112basic_stringIcNS_11char_traitsIcEENS_9allocatorIcEEE3endB8ue170006Ev, symObjAddr: 0x160, symBinAddr: 0x100000AB0, symSize: 0x50 }
  - { offsetInCU: 0xBD13, offset: 0xBD13, size: 0x8, addend: 0x0, symName: __ZNKSt3__111__wrap_iterIPcEdeB8ue170006Ev, symObjAddr: 0x1E0, symBinAddr: 0x100000B30, symSize: 0x20 }
  - { offsetInCU: 0xBD38, offset: 0xBD38, size: 0x8, addend: 0x0, symName: __ZNSt3__111__wrap_iterIPcEppB8ue170006Ev, symObjAddr: 0x220, symBinAddr: 0x100000B70, symSize: 0x20 }
  - { offsetInCU: 0xBD5C, offset: 0xBD5C, size: 0x8, addend: 0x0, symName: __Z13doubleIsValidd, symObjAddr: 0x250, symBinAddr: 0x100000BA0, symSize: 0x110 }
  - { offsetInCU: 0xBDEF, offset: 0xBDEF, size: 0x8, addend: 0x0, symName: __Z7toUpperNSt3__112basic_stringIcNS_11char_traitsIcEENS_9allocatorIcEEEE, symObjAddr: 0x360, symBinAddr: 0x100000CB0, symSize: 0xD0 }
  - { offsetInCU: 0xBE3A, offset: 0xBE3A, size: 0x8, addend: 0x0, symName: __ZNKSt3__112basic_stringIcNS_11char_traitsIcEENS_9allocatorIcEEE6lengthB8ue170006Ev, symObjAddr: 0x430, symBinAddr: 0x100000D80, symSize: 0x20 }
  - { offsetInCU: 0xBE5F, offset: 0xBE5F, size: 0x8, addend: 0x0, symName: __ZNSt3__112basic_stringIcNS_11char_traitsIcEENS_9allocatorIcEEEixB8ue170006Em, symObjAddr: 0x450, symBinAddr: 0x100000DA0, symSize: 0x30 }
  - { offsetInCU: 0xBE92, offset: 0xBE92, size: 0x8, addend: 0x0, symName: __Z9idIsValidNSt3__112basic_stringIcNS_11char_traitsIcEENS_9allocatorIcEEEE, symObjAddr: 0x480, symBinAddr: 0x100000DD0, symSize: 0xC0 }
  - { offsetInCU: 0xBF13, offset: 0xBF13, size: 0x8, addend: 0x0, symName: _main, symObjAddr: 0x610, symBinAddr: 0x100000F60, symSize: 0x5BD0 }
  - { offsetInCU: 0xC400, offset: 0xC400, size: 0x8, addend: 0x0, symName: __ZN8AirHouseC1Ev, symObjAddr: 0x61E0, symBinAddr: 0x100006B30, symSize: 0x20 }
  - { offsetInCU: 0xC42B, offset: 0xC42B, size: 0x8, addend: 0x0, symName: __ZNSt3__112basic_stringIcNS_11char_traitsIcEENS_9allocatorIcEEEC1B8ue170006Ev, symObjAddr: 0x6200, symBinAddr: 0x100006B50, symSize: 0x20 }
  - { offsetInCU: 0xC459, offset: 0xC459, size: 0x8, addend: 0x0, symName: __ZNSt3__112basic_stringIcNS_11char_traitsIcEENS_9allocatorIcEEEC1B8ue170006ILi0EEEPKc, symObjAddr: 0x6220, symBinAddr: 0x100006B70, symSize: 0x30 }
  - { offsetInCU: 0xC497, offset: 0xC497, size: 0x8, addend: 0x0, symName: __ZNSt3__113basic_ostreamIcNS_11char_traitsIcEEElsB8ue170006EPFRS3_S4_E, symObjAddr: 0x6290, symBinAddr: 0x100006BE0, symSize: 0x20 }
  - { offsetInCU: 0xC4CA, offset: 0xC4CA, size: 0x8, addend: 0x0, symName: __ZNSt3__19basic_iosIcNS_11char_traitsIcEEE5clearB8ue170006Ej, symObjAddr: 0x6300, symBinAddr: 0x100006C50, symSize: 0x30 }
  - { offsetInCU: 0xC4FE, offset: 0xC4FE, size: 0x8, addend: 0x0, symName: __ZNSt3__111char_traitsIcE3eofB8ue170006Ev, symObjAddr: 0x6330, symBinAddr: 0x100006C80, symSize: 0x10 }
  - { offsetInCU: 0xC512, offset: 0xC512, size: 0x8, addend: 0x0, symName: __ZN8AirHouse8getItemsEv, symObjAddr: 0x6390, symBinAddr: 0x100006CE0, symSize: 0x10 }
  - { offsetInCU: 0xC536, offset: 0xC536, size: 0x8, addend: 0x0, symName: __ZNSt3__16vectorI4ItemNS_9allocatorIS1_EEE5beginB8ue170006Ev, symObjAddr: 0x63A0, symBinAddr: 0x100006CF0, symSize: 0x30 }
  - { offsetInCU: 0xC55C, offset: 0xC55C, size: 0x8, addend: 0x0, symName: __ZNSt3__16vectorI4ItemNS_9allocatorIS1_EEE3endB8ue170006Ev, symObjAddr: 0x63D0, symBinAddr: 0x100006D20, symSize: 0x30 }
  - { offsetInCU: 0xC583, offset: 0xC583, size: 0x8, addend: 0x0, symName: __ZNKSt3__111__wrap_iterIP4ItemEdeB8ue170006Ev, symObjAddr: 0x6430, symBinAddr: 0x100006D80, symSize: 0x20 }
  - { offsetInCU: 0xC5A8, offset: 0xC5A8, size: 0x8, addend: 0x0, symName: __ZNK4Item5getIdEv, symObjAddr: 0x6450, symBinAddr: 0x100006DA0, symSize: 0x30 }
  - { offsetInCU: 0xC5CD, offset: 0xC5CD, size: 0x8, addend: 0x0, symName: __ZNSt3__111__wrap_iterIP4ItemEppB8ue170006Ev, symObjAddr: 0x6590, symBinAddr: 0x100006EE0, symSize: 0x20 }
  - { offsetInCU: 0xC5F2, offset: 0xC5F2, size: 0x8, addend: 0x0, symName: __ZN8AirHouse7addItemENSt3__112basic_stringIcNS0_11char_traitsIcEENS0_9allocatorIcEEEES6_idS6_, symObjAddr: 0x6890, symBinAddr: 0x1000071E0, symSize: 0x430 }
  - { offsetInCU: 0xC6B6, offset: 0xC6B6, size: 0x8, addend: 0x0, symName: __ZNK4Item6getQtyEv, symObjAddr: 0x6D10, symBinAddr: 0x100007660, symSize: 0x20 }
  - { offsetInCU: 0xC6DB, offset: 0xC6DB, size: 0x8, addend: 0x0, symName: __ZN8AirHouse7editQtyENSt3__112basic_stringIcNS0_11char_traitsIcEENS0_9allocatorIcEEEEi, symObjAddr: 0x6D30, symBinAddr: 0x100007680, symSize: 0x1F0 }
  - { offsetInCU: 0xC777, offset: 0xC777, size: 0x8, addend: 0x0, symName: __ZNK4Item8getPriceEv, symObjAddr: 0x6F20, symBinAddr: 0x100007870, symSize: 0x20 }
  - { offsetInCU: 0xC79C, offset: 0xC79C, size: 0x8, addend: 0x0, symName: __ZN8AirHouse9editPriceENSt3__112basic_stringIcNS0_11char_traitsIcEENS0_9allocatorIcEEEEd, symObjAddr: 0x6F40, symBinAddr: 0x100007890, symSize: 0x1C0 }
  - { offsetInCU: 0xC84A, offset: 0xC84A, size: 0x8, addend: 0x0, symName: __ZN8AirHouse10deleteItemENSt3__112basic_stringIcNS0_11char_traitsIcEENS0_9allocatorIcEEEE, symObjAddr: 0x7100, symBinAddr: 0x100007A50, symSize: 0x1B0 }
  - { offsetInCU: 0xC893, offset: 0xC893, size: 0x8, addend: 0x0, symName: __ZN8AirHouse9dispByCatENSt3__112basic_stringIcNS0_11char_traitsIcEENS0_9allocatorIcEEEE, symObjAddr: 0x72B0, symBinAddr: 0x100007C00, symSize: 0x340 }
  - { offsetInCU: 0xC91B, offset: 0xC91B, size: 0x8, addend: 0x0, symName: __ZN8AirHouse7dispAllEv, symObjAddr: 0x75F0, symBinAddr: 0x100007F40, symSize: 0x1B0 }
  - { offsetInCU: 0xC9A3, offset: 0xC9A3, size: 0x8, addend: 0x0, symName: __ZN8AirHouse10searchItemENSt3__112basic_stringIcNS0_11char_traitsIcEENS0_9allocatorIcEEEE, symObjAddr: 0x77A0, symBinAddr: 0x1000080F0, symSize: 0x350 }
  - { offsetInCU: 0xCA40, offset: 0xCA40, size: 0x8, addend: 0x0, symName: __ZN8AirHouse9sortItemsEii, symObjAddr: 0x7AF0, symBinAddr: 0x100008440, symSize: 0x260 }
  - { offsetInCU: 0xCB03, offset: 0xCB03, size: 0x8, addend: 0x0, symName: __ZN8AirHouse12dispLowStockEv, symObjAddr: 0x7D50, symBinAddr: 0x1000086A0, symSize: 0x1C0 }
  - { offsetInCU: 0xCB8D, offset: 0xCB8D, size: 0x8, addend: 0x0, symName: __ZN8AirHouseD1Ev, symObjAddr: 0x7F10, symBinAddr: 0x100008860, symSize: 0x20 }
  - { offsetInCU: 0xCBB7, offset: 0xCBB7, size: 0x8, addend: 0x0, symName: __Z9__isctypeim, symObjAddr: 0x7F30, symBinAddr: 0x100008880, symSize: 0x60 }
  - { offsetInCU: 0xCBF1, offset: 0xCBF1, size: 0x8, addend: 0x0, symName: __Z8__istypeim, symObjAddr: 0x7F90, symBinAddr: 0x1000088E0, symSize: 0x70 }
  - { offsetInCU: 0xCC2B, offset: 0xCC2B, size: 0x8, addend: 0x0, symName: __Z7isasciii, symObjAddr: 0x8000, symBinAddr: 0x100008950, symSize: 0x20 }
  - { offsetInCU: 0xCC58, offset: 0xCC58, size: 0x8, addend: 0x0, symName: __ZN8AirHouseC2Ev, symObjAddr: 0x8020, symBinAddr: 0x100008970, symSize: 0x20 }
  - { offsetInCU: 0xCC83, offset: 0xCC83, size: 0x8, addend: 0x0, symName: __ZNSt3__16vectorI4ItemNS_9allocatorIS1_EEEC1B8ue170006Ev, symObjAddr: 0x8040, symBinAddr: 0x100008990, symSize: 0x20 }
  - { offsetInCU: 0xCCAC, offset: 0xCCAC, size: 0x8, addend: 0x0, symName: __ZNSt3__16vectorI4ItemNS_9allocatorIS1_EEEC2B8ue170006Ev, symObjAddr: 0x8060, symBinAddr: 0x1000089B0, symSize: 0x40 }
  - { offsetInCU: 0xCCDF, offset: 0xCCDF, size: 0x8, addend: 0x0, symName: __ZNSt3__117__compressed_pairIP4ItemNS_9allocatorIS1_EEEC1B8ue170006IDnNS_18__default_init_tagEEEOT_OT0_, symObjAddr: 0x80A0, symBinAddr: 0x1000089F0, symSize: 0x30 }
  - { offsetInCU: 0xCD36, offset: 0xCD36, size: 0x8, addend: 0x0, symName: __ZNSt3__117__compressed_pairIP4ItemNS_9allocatorIS1_EEEC2B8ue170006IDnNS_18__default_init_tagEEEOT_OT0_, symObjAddr: 0x80D0, symBinAddr: 0x100008A20, symSize: 0x40 }
  - { offsetInCU: 0xCD8D, offset: 0xCD8D, size: 0x8, addend: 0x0, symName: __ZNSt3__122__compressed_pair_elemIP4ItemLi0ELb0EEC2B8ue170006IDnvEEOT_, symObjAddr: 0x8110, symBinAddr: 0x100008A60, symSize: 0x20 }
  - { offsetInCU: 0xCDCE, offset: 0xCDCE, size: 0x8, addend: 0x0, symName: __ZNSt3__122__compressed_pair_elemINS_9allocatorI4ItemEELi1ELb1EEC2B8ue170006ENS_18__default_init_tagE, symObjAddr: 0x8130, symBinAddr: 0x100008A80, symSize: 0x20 }
  - { offsetInCU: 0xCE02, offset: 0xCE02, size: 0x8, addend: 0x0, symName: __ZNSt3__19allocatorI4ItemEC2B8ue170006Ev, symObjAddr: 0x8150, symBinAddr: 0x100008AA0, symSize: 0x20 }
  - { offsetInCU: 0xCE2B, offset: 0xCE2B, size: 0x8, addend: 0x0, symName: __ZNSt3__116__non_trivial_ifILb1ENS_9allocatorI4ItemEEEC2B8ue170006Ev, symObjAddr: 0x8170, symBinAddr: 0x100008AC0, symSize: 0x10 }
  - { offsetInCU: 0xCE53, offset: 0xCE53, size: 0x8, addend: 0x0, symName: __ZNSt3__16vectorI4ItemNS_9allocatorIS1_EEE9push_backB8ue170006EOS1_, symObjAddr: 0x8180, symBinAddr: 0x100008AD0, symSize: 0x60 }
  - { offsetInCU: 0xCE89, offset: 0xCE89, size: 0x8, addend: 0x0, symName: __ZN4ItemC1ENSt3__112basic_stringIcNS0_11char_traitsIcEENS0_9allocatorIcEEEES6_idS6_, symObjAddr: 0x81E0, symBinAddr: 0x100008B30, symSize: 0x40 }
  - { offsetInCU: 0xCEFB, offset: 0xCEFB, size: 0x8, addend: 0x0, symName: __ZN4ItemD1Ev, symObjAddr: 0x8220, symBinAddr: 0x100008B70, symSize: 0x20 }
  - { offsetInCU: 0xCF26, offset: 0xCF26, size: 0x8, addend: 0x0, symName: __ZNSt3__16vectorI4ItemNS_9allocatorIS1_EEE9__end_capB8ue170006Ev, symObjAddr: 0x8240, symBinAddr: 0x100008B90, symSize: 0x20 }
  - { offsetInCU: 0xCF50, offset: 0xCF50, size: 0x8, addend: 0x0, symName: __ZNSt3__16vectorI4ItemNS_9allocatorIS1_EEE22__construct_one_at_endB8ue170006IJS1_EEEvDpOT_, symObjAddr: 0x8260, symBinAddr: 0x100008BB0, symSize: 0xA0 }
  - { offsetInCU: 0xCF9D, offset: 0xCF9D, size: 0x8, addend: 0x0, symName: __ZNSt3__16vectorI4ItemNS_9allocatorIS1_EEE21__push_back_slow_pathIS1_EEvOT_, symObjAddr: 0x8300, symBinAddr: 0x100008C50, symSize: 0xE0 }
  - { offsetInCU: 0xCFFA, offset: 0xCFFA, size: 0x8, addend: 0x0, symName: __ZNSt3__117__compressed_pairIP4ItemNS_9allocatorIS1_EEE5firstB8ue170006Ev, symObjAddr: 0x83E0, symBinAddr: 0x100008D30, symSize: 0x20 }
  - { offsetInCU: 0xD01F, offset: 0xD01F, size: 0x8, addend: 0x0, symName: __ZNSt3__122__compressed_pair_elemIP4ItemLi0ELb0EE5__getB8ue170006Ev, symObjAddr: 0x8400, symBinAddr: 0x100008D50, symSize: 0x10 }
  - { offsetInCU: 0xD05D, offset: 0xD05D, size: 0x8, addend: 0x0, symName: __ZNSt3__16vectorI4ItemNS_9allocatorIS1_EEE21_ConstructTransactionC1B8ue170006ERS4_m, symObjAddr: 0x8410, symBinAddr: 0x100008D60, symSize: 0x30 }
  - { offsetInCU: 0xD0A4, offset: 0xD0A4, size: 0x8, addend: 0x0, symName: __ZNSt3__116allocator_traitsINS_9allocatorI4ItemEEE9constructB8ue170006IS2_JS2_EvEEvRS3_PT_DpOT0_, symObjAddr: 0x8440, symBinAddr: 0x100008D90, symSize: 0x30 }
  - { offsetInCU: 0xD0FB, offset: 0xD0FB, size: 0x8, addend: 0x0, symName: __ZNSt3__16vectorI4ItemNS_9allocatorIS1_EEE7__allocB8ue170006Ev, symObjAddr: 0x8470, symBinAddr: 0x100008DC0, symSize: 0x20 }
  - { offsetInCU: 0xD120, offset: 0xD120, size: 0x8, addend: 0x0, symName: __ZNSt3__16vectorI4ItemNS_9allocatorIS1_EEE21_ConstructTransactionD1B8ue170006Ev, symObjAddr: 0x84A0, symBinAddr: 0x100008DF0, symSize: 0x20 }
  - { offsetInCU: 0xD149, offset: 0xD149, size: 0x8, addend: 0x0, symName: __ZNSt3__16vectorI4ItemNS_9allocatorIS1_EEE21_ConstructTransactionC2B8ue170006ERS4_m, symObjAddr: 0x84C0, symBinAddr: 0x100008E10, symSize: 0x40 }
  - { offsetInCU: 0xD190, offset: 0xD190, size: 0x8, addend: 0x0, symName: __ZNSt3__19allocatorI4ItemE9constructB8ue170006IS1_JS1_EEEvPT_DpOT0_, symObjAddr: 0x8500, symBinAddr: 0x100008E50, symSize: 0x30 }
  - { offsetInCU: 0xD1E5, offset: 0xD1E5, size: 0x8, addend: 0x0, symName: __ZN4ItemC1ERKS_, symObjAddr: 0x8530, symBinAddr: 0x100008E80, symSize: 0x30 }
  - { offsetInCU: 0xD219, offset: 0xD219, size: 0x8, addend: 0x0, symName: __ZN4ItemC2ERKS_, symObjAddr: 0x8560, symBinAddr: 0x100008EB0, symSize: 0xE0 }
  - { offsetInCU: 0xD24D, offset: 0xD24D, size: 0x8, addend: 0x0, symName: __ZNK4Item11displayInfoEv, symObjAddr: 0x8640, symBinAddr: 0x100008F90, symSize: 0x140 }
  - { offsetInCU: 0xD272, offset: 0xD272, size: 0x8, addend: 0x0, symName: __ZNSt3__113basic_ostreamIcNS_11char_traitsIcEEElsB8ue170006EPFRNS_8ios_baseES5_E, symObjAddr: 0x8820, symBinAddr: 0x100009170, symSize: 0x30 }
  - { offsetInCU: 0xD2A4, offset: 0xD2A4, size: 0x8, addend: 0x0, symName: __ZNSt3__18ios_base5widthB8ue170006El, symObjAddr: 0x88A0, symBinAddr: 0x1000091F0, symSize: 0x30 }
  - { offsetInCU: 0xD2E8, offset: 0xD2E8, size: 0x8, addend: 0x0, symName: __ZNSt3__18ios_base9precisionB8ue170006El, symObjAddr: 0x88D0, symBinAddr: 0x100009220, symSize: 0x30 }
  - { offsetInCU: 0xD32D, offset: 0xD32D, size: 0x8, addend: 0x0, symName: __ZNSt3__18__iom_t6C1B8ue170006Ei, symObjAddr: 0x8900, symBinAddr: 0x100009250, symSize: 0x30 }
  - { offsetInCU: 0xD364, offset: 0xD364, size: 0x8, addend: 0x0, symName: __ZNSt3__18__iom_t6C2B8ue170006Ei, symObjAddr: 0x8930, symBinAddr: 0x100009280, symSize: 0x20 }
  - { offsetInCU: 0xD39A, offset: 0xD39A, size: 0x8, addend: 0x0, symName: __ZNSt3__18ios_base4setfB8ue170006Ejj, symObjAddr: 0x8950, symBinAddr: 0x1000092A0, symSize: 0x50 }
  - { offsetInCU: 0xD3ED, offset: 0xD3ED, size: 0x8, addend: 0x0, symName: __ZNSt3__18ios_base6unsetfB8ue170006Ej, symObjAddr: 0x89A0, symBinAddr: 0x1000092F0, symSize: 0x20 }
  - { offsetInCU: 0xD423, offset: 0xD423, size: 0x8, addend: 0x0, symName: __ZNSt3__18__iom_t5C1B8ue170006Ei, symObjAddr: 0x89C0, symBinAddr: 0x100009310, symSize: 0x30 }
  - { offsetInCU: 0xD45A, offset: 0xD45A, size: 0x8, addend: 0x0, symName: __ZNSt3__18__iom_t5C2B8ue170006Ei, symObjAddr: 0x89F0, symBinAddr: 0x100009340, symSize: 0x20 }
  - { offsetInCU: 0xD491, offset: 0xD491, size: 0x8, addend: 0x0, symName: __ZNSt3__117__compressed_pairIP4ItemNS_9allocatorIS1_EEE6secondB8ue170006Ev, symObjAddr: 0x8A10, symBinAddr: 0x100009360, symSize: 0x20 }
  - { offsetInCU: 0xD4B6, offset: 0xD4B6, size: 0x8, addend: 0x0, symName: __ZNSt3__122__compressed_pair_elemINS_9allocatorI4ItemEELi1ELb1EE5__getB8ue170006Ev, symObjAddr: 0x8A30, symBinAddr: 0x100009380, symSize: 0x10 }
  - { offsetInCU: 0xD4DB, offset: 0xD4DB, size: 0x8, addend: 0x0, symName: __ZNSt3__16vectorI4ItemNS_9allocatorIS1_EEE21_ConstructTransactionD2B8ue170006Ev, symObjAddr: 0x8A40, symBinAddr: 0x100009390, symSize: 0x20 }
  - { offsetInCU: 0xD503, offset: 0xD503, size: 0x8, addend: 0x0, symName: __ZNKSt3__16vectorI4ItemNS_9allocatorIS1_EEE11__recommendB8ue170006Em, symObjAddr: 0x8A60, symBinAddr: 0x1000093B0, symSize: 0xA0 }
  - { offsetInCU: 0xD557, offset: 0xD557, size: 0x8, addend: 0x0, symName: __ZNKSt3__16vectorI4ItemNS_9allocatorIS1_EEE4sizeB8ue170006Ev, symObjAddr: 0x8B00, symBinAddr: 0x100009450, symSize: 0x30 }
  - { offsetInCU: 0xD57C, offset: 0xD57C, size: 0x8, addend: 0x0, symName: __ZNSt3__114__split_bufferI4ItemRNS_9allocatorIS1_EEEC1EmmS4_, symObjAddr: 0x8B30, symBinAddr: 0x100009480, symSize: 0x40 }
  - { offsetInCU: 0xD5D1, offset: 0xD5D1, size: 0x8, addend: 0x0, symName: __ZNSt3__114__split_bufferI4ItemRNS_9allocatorIS1_EEED1Ev, symObjAddr: 0x8C90, symBinAddr: 0x1000095E0, symSize: 0x20 }
  - { offsetInCU: 0xD5FB, offset: 0xD5FB, size: 0x8, addend: 0x0, symName: __ZNKSt3__16vectorI4ItemNS_9allocatorIS1_EEE8max_sizeEv, symObjAddr: 0x8CB0, symBinAddr: 0x100009600, symSize: 0x70 }
  - { offsetInCU: 0xD622, offset: 0xD622, size: 0x8, addend: 0x0, symName: __ZNKSt3__16vectorI4ItemNS_9allocatorIS1_EEE20__throw_length_errorB8ue170006Ev, symObjAddr: 0x8D20, symBinAddr: 0x100009670, symSize: 0x20 }
  - { offsetInCU: 0xD647, offset: 0xD647, size: 0x8, addend: 0x0, symName: __ZNKSt3__16vectorI4ItemNS_9allocatorIS1_EEE8capacityB8ue170006Ev, symObjAddr: 0x8D40, symBinAddr: 0x100009690, symSize: 0x40 }
  - { offsetInCU: 0xD676, offset: 0xD676, size: 0x8, addend: 0x0, symName: __ZNSt3__116allocator_traitsINS_9allocatorI4ItemEEE8max_sizeB8ue170006IS3_vEEmRKS3_, symObjAddr: 0x8DE0, symBinAddr: 0x100009730, symSize: 0x20 }
  - { offsetInCU: 0xD6A4, offset: 0xD6A4, size: 0x8, addend: 0x0, symName: __ZNKSt3__16vectorI4ItemNS_9allocatorIS1_EEE7__allocB8ue170006Ev, symObjAddr: 0x8E00, symBinAddr: 0x100009750, symSize: 0x20 }
  - { offsetInCU: 0xD6C9, offset: 0xD6C9, size: 0x8, addend: 0x0, symName: __ZNSt3__114numeric_limitsIlE3maxB8ue170006Ev, symObjAddr: 0x8E20, symBinAddr: 0x100009770, symSize: 0x10 }
  - { offsetInCU: 0xD6F1, offset: 0xD6F1, size: 0x8, addend: 0x0, symName: __ZNKSt3__16__lessIvvEclB8ue170006ImmEEbRKT_RKT0_, symObjAddr: 0x8E80, symBinAddr: 0x1000097D0, symSize: 0x30 }
  - { offsetInCU: 0xD744, offset: 0xD744, size: 0x8, addend: 0x0, symName: __ZNKSt3__19allocatorI4ItemE8max_sizeB8ue170006Ev, symObjAddr: 0x8EB0, symBinAddr: 0x100009800, symSize: 0x20 }
  - { offsetInCU: 0xD769, offset: 0xD769, size: 0x8, addend: 0x0, symName: __ZNKSt3__117__compressed_pairIP4ItemNS_9allocatorIS1_EEE6secondB8ue170006Ev, symObjAddr: 0x8ED0, symBinAddr: 0x100009820, symSize: 0x20 }
  - { offsetInCU: 0xD78E, offset: 0xD78E, size: 0x8, addend: 0x0, symName: __ZNKSt3__122__compressed_pair_elemINS_9allocatorI4ItemEELi1ELb1EE5__getB8ue170006Ev, symObjAddr: 0x8EF0, symBinAddr: 0x100009840, symSize: 0x10 }
  - { offsetInCU: 0xD7B3, offset: 0xD7B3, size: 0x8, addend: 0x0, symName: __ZNSt3__123__libcpp_numeric_limitsIlLb1EE3maxB8ue170006Ev, symObjAddr: 0x8F00, symBinAddr: 0x100009850, symSize: 0x10 }
  - { offsetInCU: 0xD7C7, offset: 0xD7C7, size: 0x8, addend: 0x0, symName: __ZNSt12length_errorC1B8ue170006EPKc, symObjAddr: 0x8F80, symBinAddr: 0x1000098D0, symSize: 0x30 }
  - { offsetInCU: 0xD7FE, offset: 0xD7FE, size: 0x8, addend: 0x0, symName: __ZNSt12length_errorC2B8ue170006EPKc, symObjAddr: 0x8FB0, symBinAddr: 0x100009900, symSize: 0x40 }
  - { offsetInCU: 0xD835, offset: 0xD835, size: 0x8, addend: 0x0, symName: __ZNKSt3__16vectorI4ItemNS_9allocatorIS1_EEE9__end_capB8ue170006Ev, symObjAddr: 0x8FF0, symBinAddr: 0x100009940, symSize: 0x20 }
  - { offsetInCU: 0xD85A, offset: 0xD85A, size: 0x8, addend: 0x0, symName: __ZNKSt3__117__compressed_pairIP4ItemNS_9allocatorIS1_EEE5firstB8ue170006Ev, symObjAddr: 0x9010, symBinAddr: 0x100009960, symSize: 0x20 }
  - { offsetInCU: 0xD87F, offset: 0xD87F, size: 0x8, addend: 0x0, symName: __ZNKSt3__122__compressed_pair_elemIP4ItemLi0ELb0EE5__getB8ue170006Ev, symObjAddr: 0x9030, symBinAddr: 0x100009980, symSize: 0x10 }
  - { offsetInCU: 0xD8A4, offset: 0xD8A4, size: 0x8, addend: 0x0, symName: __ZNSt3__114__split_bufferI4ItemRNS_9allocatorIS1_EEEC2EmmS4_, symObjAddr: 0x9090, symBinAddr: 0x1000099E0, symSize: 0xC0 }
  - { offsetInCU: 0xD917, offset: 0xD917, size: 0x8, addend: 0x0, symName: __ZNSt3__117__compressed_pairIP4ItemRNS_9allocatorIS1_EEEC1B8ue170006IDnS5_EEOT_OT0_, symObjAddr: 0x9150, symBinAddr: 0x100009AA0, symSize: 0x30 }
  - { offsetInCU: 0xD96E, offset: 0xD96E, size: 0x8, addend: 0x0, symName: __ZNSt3__114__split_bufferI4ItemRNS_9allocatorIS1_EEE7__allocB8ue170006Ev, symObjAddr: 0x91C0, symBinAddr: 0x100009B10, symSize: 0x20 }
  - { offsetInCU: 0xD993, offset: 0xD993, size: 0x8, addend: 0x0, symName: __ZNSt3__114__split_bufferI4ItemRNS_9allocatorIS1_EEE9__end_capB8ue170006Ev, symObjAddr: 0x91E0, symBinAddr: 0x100009B30, symSize: 0x20 }
  - { offsetInCU: 0xD9B8, offset: 0xD9B8, size: 0x8, addend: 0x0, symName: __ZNSt3__117__compressed_pairIP4ItemRNS_9allocatorIS1_EEEC2B8ue170006IDnS5_EEOT_OT0_, symObjAddr: 0x9200, symBinAddr: 0x100009B50, symSize: 0x40 }
  - { offsetInCU: 0xDA0F, offset: 0xDA0F, size: 0x8, addend: 0x0, symName: __ZNSt3__122__compressed_pair_elemIRNS_9allocatorI4ItemEELi1ELb0EEC2B8ue170006IS4_vEEOT_, symObjAddr: 0x9240, symBinAddr: 0x100009B90, symSize: 0x20 }
  - { offsetInCU: 0xDA50, offset: 0xDA50, size: 0x8, addend: 0x0, symName: __ZNSt3__19allocatorI4ItemE8allocateB8ue170006Em, symObjAddr: 0x9260, symBinAddr: 0x100009BB0, symSize: 0x80 }
  - { offsetInCU: 0xDA83, offset: 0xDA83, size: 0x8, addend: 0x0, symName: __ZNSt3__117__compressed_pairIP4ItemRNS_9allocatorIS1_EEE6secondB8ue170006Ev, symObjAddr: 0x9370, symBinAddr: 0x100009CC0, symSize: 0x20 }
  - { offsetInCU: 0xDAA8, offset: 0xDAA8, size: 0x8, addend: 0x0, symName: __ZNSt3__122__compressed_pair_elemIRNS_9allocatorI4ItemEELi1ELb0EE5__getB8ue170006Ev, symObjAddr: 0x9390, symBinAddr: 0x100009CE0, symSize: 0x20 }
  - { offsetInCU: 0xDACD, offset: 0xDACD, size: 0x8, addend: 0x0, symName: __ZNSt3__117__compressed_pairIP4ItemRNS_9allocatorIS1_EEE5firstB8ue170006Ev, symObjAddr: 0x93B0, symBinAddr: 0x100009D00, symSize: 0x20 }
  - { offsetInCU: 0xDAF2, offset: 0xDAF2, size: 0x8, addend: 0x0, symName: __ZNKSt3__16vectorI4ItemNS_9allocatorIS1_EEE17__annotate_deleteB8ue170006Ev, symObjAddr: 0x93D0, symBinAddr: 0x100009D20, symSize: 0xB0 }
  - { offsetInCU: 0xDB17, offset: 0xDB17, size: 0x8, addend: 0x0, symName: __ZNSt3__116reverse_iteratorIP4ItemEC1B8ue170006ES2_, symObjAddr: 0x9610, symBinAddr: 0x100009F60, symSize: 0x30 }
  - { offsetInCU: 0xDB4E, offset: 0xDB4E, size: 0x8, addend: 0x0, symName: __ZNKSt3__116reverse_iteratorIP4ItemE4baseB8ue170006Ev, symObjAddr: 0x9640, symBinAddr: 0x100009F90, symSize: 0x20 }
  - { offsetInCU: 0xDB73, offset: 0xDB73, size: 0x8, addend: 0x0, symName: __ZNKSt3__16vectorI4ItemNS_9allocatorIS1_EEE14__annotate_newB8ue170006Em, symObjAddr: 0x96A0, symBinAddr: 0x100009FF0, symSize: 0xA0 }
  - { offsetInCU: 0xDBA7, offset: 0xDBA7, size: 0x8, addend: 0x0, symName: __ZNKSt3__16vectorI4ItemNS_9allocatorIS1_EEE31__annotate_contiguous_containerB8ue170006EPKvS6_S6_S6_, symObjAddr: 0x9740, symBinAddr: 0x10000A090, symSize: 0x20 }
  - { offsetInCU: 0xDBFC, offset: 0xDBFC, size: 0x8, addend: 0x0, symName: __ZNKSt3__16vectorI4ItemNS_9allocatorIS1_EEE4dataB8ue170006Ev, symObjAddr: 0x9760, symBinAddr: 0x10000A0B0, symSize: 0x20 }
  - { offsetInCU: 0xDC21, offset: 0xDC21, size: 0x8, addend: 0x0, symName: __ZNSt3__129_AllocatorDestroyRangeReverseINS_9allocatorI4ItemEENS_16reverse_iteratorIPS2_EEEC1B8ue170006ERS3_RS6_S9_, symObjAddr: 0x97E0, symBinAddr: 0x10000A130, symSize: 0x40 }
  - { offsetInCU: 0xDC77, offset: 0xDC77, size: 0x8, addend: 0x0, symName: __ZNSt3__116allocator_traitsINS_9allocatorI4ItemEEE9constructB8ue170006IS2_JRKS2_EvEEvRS3_PT_DpOT0_, symObjAddr: 0x9860, symBinAddr: 0x10000A1B0, symSize: 0x30 }
  - { offsetInCU: 0xDCCE, offset: 0xDCCE, size: 0x8, addend: 0x0, symName: __ZNKSt3__116reverse_iteratorIP4ItemEdeB8ue170006Ev, symObjAddr: 0x98B0, symBinAddr: 0x10000A200, symSize: 0x30 }
  - { offsetInCU: 0xDD01, offset: 0xDD01, size: 0x8, addend: 0x0, symName: __ZNSt3__116reverse_iteratorIP4ItemEppB8ue170006Ev, symObjAddr: 0x98E0, symBinAddr: 0x10000A230, symSize: 0x20 }
  - { offsetInCU: 0xDD26, offset: 0xDD26, size: 0x8, addend: 0x0, symName: __ZNSt3__128__exception_guard_exceptionsINS_29_AllocatorDestroyRangeReverseINS_9allocatorI4ItemEENS_16reverse_iteratorIPS3_EEEEE10__completeB8ue170006Ev, symObjAddr: 0x9900, symBinAddr: 0x10000A250, symSize: 0x20 }
  - { offsetInCU: 0xDD4B, offset: 0xDD4B, size: 0x8, addend: 0x0, symName: __ZNSt3__128__exception_guard_exceptionsINS_29_AllocatorDestroyRangeReverseINS_9allocatorI4ItemEENS_16reverse_iteratorIPS3_EEEEED1B8ue170006Ev, symObjAddr: 0x9920, symBinAddr: 0x10000A270, symSize: 0x20 }
  - { offsetInCU: 0xDD74, offset: 0xDD74, size: 0x8, addend: 0x0, symName: __ZNSt3__128__exception_guard_exceptionsINS_29_AllocatorDestroyRangeReverseINS_9allocatorI4ItemEENS_16reverse_iteratorIPS3_EEEEEC1B8ue170006ES8_, symObjAddr: 0x9940, symBinAddr: 0x10000A290, symSize: 0x40 }
  - { offsetInCU: 0xDDAB, offset: 0xDDAB, size: 0x8, addend: 0x0, symName: __ZNSt3__128__exception_guard_exceptionsINS_29_AllocatorDestroyRangeReverseINS_9allocatorI4ItemEENS_16reverse_iteratorIPS3_EEEEEC2B8ue170006ES8_, symObjAddr: 0x9980, symBinAddr: 0x10000A2D0, symSize: 0x30 }
  - { offsetInCU: 0xDDE2, offset: 0xDDE2, size: 0x8, addend: 0x0, symName: __ZNSt3__129_AllocatorDestroyRangeReverseINS_9allocatorI4ItemEENS_16reverse_iteratorIPS2_EEEC2B8ue170006ERS3_RS6_S9_, symObjAddr: 0x99B0, symBinAddr: 0x10000A300, symSize: 0x40 }
  - { offsetInCU: 0xDE38, offset: 0xDE38, size: 0x8, addend: 0x0, symName: __ZNSt3__19allocatorI4ItemE9constructB8ue170006IS1_JRKS1_EEEvPT_DpOT0_, symObjAddr: 0x99F0, symBinAddr: 0x10000A340, symSize: 0x30 }
  - { offsetInCU: 0xDE92, offset: 0xDE92, size: 0x8, addend: 0x0, symName: __ZNSt3__119__to_address_helperINS_16reverse_iteratorIP4ItemEEvE6__callB8ue170006ERKS4_, symObjAddr: 0x9A20, symBinAddr: 0x10000A370, symSize: 0x50 }
  - { offsetInCU: 0xDEB5, offset: 0xDEB5, size: 0x8, addend: 0x0, symName: __ZNKSt3__116reverse_iteratorIP4ItemEptB8ue170006Ev, symObjAddr: 0x9A70, symBinAddr: 0x10000A3C0, symSize: 0x20 }
  - { offsetInCU: 0xDEDA, offset: 0xDEDA, size: 0x8, addend: 0x0, symName: __ZNSt3__128__exception_guard_exceptionsINS_29_AllocatorDestroyRangeReverseINS_9allocatorI4ItemEENS_16reverse_iteratorIPS3_EEEEED2B8ue170006Ev, symObjAddr: 0x9A90, symBinAddr: 0x10000A3E0, symSize: 0x30 }
  - { offsetInCU: 0xDF03, offset: 0xDF03, size: 0x8, addend: 0x0, symName: __ZNKSt3__129_AllocatorDestroyRangeReverseINS_9allocatorI4ItemEENS_16reverse_iteratorIPS2_EEEclB8ue170006Ev, symObjAddr: 0x9AC0, symBinAddr: 0x10000A410, symSize: 0xF0 }
  - { offsetInCU: 0xDF29, offset: 0xDF29, size: 0x8, addend: 0x0, symName: __ZNSt3__116reverse_iteratorINS0_IP4ItemEEEC1B8ue170006ES3_, symObjAddr: 0x9C20, symBinAddr: 0x10000A570, symSize: 0x30 }
  - { offsetInCU: 0xDF60, offset: 0xDF60, size: 0x8, addend: 0x0, symName: __ZNSt3__116allocator_traitsINS_9allocatorI4ItemEEE7destroyB8ue170006IS2_vEEvRS3_PT_, symObjAddr: 0x9CA0, symBinAddr: 0x10000A5F0, symSize: 0x30 }
  - { offsetInCU: 0xDF9D, offset: 0xDF9D, size: 0x8, addend: 0x0, symName: __ZNSt3__116reverse_iteratorINS0_IP4ItemEEEppB8ue170006Ev, symObjAddr: 0x9CF0, symBinAddr: 0x10000A640, symSize: 0x30 }
  - { offsetInCU: 0xDFC2, offset: 0xDFC2, size: 0x8, addend: 0x0, symName: __ZNKSt3__116reverse_iteratorINS0_IP4ItemEEE4baseB8ue170006Ev, symObjAddr: 0x9D20, symBinAddr: 0x10000A670, symSize: 0x20 }
  - { offsetInCU: 0xDFE7, offset: 0xDFE7, size: 0x8, addend: 0x0, symName: __ZNSt3__19allocatorI4ItemE7destroyB8ue170006EPS1_, symObjAddr: 0x9D40, symBinAddr: 0x10000A690, symSize: 0x20 }
  - { offsetInCU: 0xE01F, offset: 0xE01F, size: 0x8, addend: 0x0, symName: __ZNSt3__119__to_address_helperINS_16reverse_iteratorINS1_IP4ItemEEEEvE6__callB8ue170006ERKS5_, symObjAddr: 0x9D60, symBinAddr: 0x10000A6B0, symSize: 0x50 }
  - { offsetInCU: 0xE042, offset: 0xE042, size: 0x8, addend: 0x0, symName: __ZNKSt3__116reverse_iteratorINS0_IP4ItemEEEptB8ue170006Ev, symObjAddr: 0x9DB0, symBinAddr: 0x10000A700, symSize: 0x20 }
  - { offsetInCU: 0xE067, offset: 0xE067, size: 0x8, addend: 0x0, symName: __ZNKSt3__116reverse_iteratorINS0_IP4ItemEEEdeB8ue170006Ev, symObjAddr: 0x9DD0, symBinAddr: 0x10000A720, symSize: 0x40 }
  - { offsetInCU: 0xE09A, offset: 0xE09A, size: 0x8, addend: 0x0, symName: __ZNSt3__116reverse_iteratorIP4ItemEmmB8ue170006Ev, symObjAddr: 0x9E10, symBinAddr: 0x10000A760, symSize: 0x20 }
  - { offsetInCU: 0xE0BF, offset: 0xE0BF, size: 0x8, addend: 0x0, symName: __ZNSt3__116reverse_iteratorINS0_IP4ItemEEEC2B8ue170006ES3_, symObjAddr: 0x9E30, symBinAddr: 0x10000A780, symSize: 0x40 }
  - { offsetInCU: 0xE0F6, offset: 0xE0F6, size: 0x8, addend: 0x0, symName: __ZNSt3__116reverse_iteratorIP4ItemEC2B8ue170006ES2_, symObjAddr: 0x9E70, symBinAddr: 0x10000A7C0, symSize: 0x30 }
  - { offsetInCU: 0xE12D, offset: 0xE12D, size: 0x8, addend: 0x0, symName: __ZNSt3__114__split_bufferI4ItemRNS_9allocatorIS1_EEED2Ev, symObjAddr: 0x9EA0, symBinAddr: 0x10000A7F0, symSize: 0x60 }
  - { offsetInCU: 0xE158, offset: 0xE158, size: 0x8, addend: 0x0, symName: __ZNSt3__114__split_bufferI4ItemRNS_9allocatorIS1_EEE5clearB8ue170006Ev, symObjAddr: 0x9F00, symBinAddr: 0x10000A850, symSize: 0x20 }
  - { offsetInCU: 0xE17D, offset: 0xE17D, size: 0x8, addend: 0x0, symName: __ZNSt3__116allocator_traitsINS_9allocatorI4ItemEEE10deallocateB8ue170006ERS3_PS2_m, symObjAddr: 0x9F20, symBinAddr: 0x10000A870, symSize: 0x30 }
  - { offsetInCU: 0xE1BF, offset: 0xE1BF, size: 0x8, addend: 0x0, symName: __ZNKSt3__114__split_bufferI4ItemRNS_9allocatorIS1_EEE8capacityB8ue170006Ev, symObjAddr: 0x9F50, symBinAddr: 0x10000A8A0, symSize: 0x40 }
  - { offsetInCU: 0xE1E4, offset: 0xE1E4, size: 0x8, addend: 0x0, symName: __ZNSt3__114__split_bufferI4ItemRNS_9allocatorIS1_EEE17__destruct_at_endB8ue170006EPS1_, symObjAddr: 0x9F90, symBinAddr: 0x10000A8E0, symSize: 0x30 }
  - { offsetInCU: 0xE216, offset: 0xE216, size: 0x8, addend: 0x0, symName: __ZNSt3__114__split_bufferI4ItemRNS_9allocatorIS1_EEE17__destruct_at_endB8ue170006EPS1_NS_17integral_constantIbLb0EEE, symObjAddr: 0x9FC0, symBinAddr: 0x10000A910, symSize: 0x80 }
  - { offsetInCU: 0xE256, offset: 0xE256, size: 0x8, addend: 0x0, symName: __ZNSt3__19allocatorI4ItemE10deallocateB8ue170006EPS1_m, symObjAddr: 0xA040, symBinAddr: 0x10000A990, symSize: 0x80 }
  - { offsetInCU: 0xE297, offset: 0xE297, size: 0x8, addend: 0x0, symName: __ZNKSt3__114__split_bufferI4ItemRNS_9allocatorIS1_EEE9__end_capB8ue170006Ev, symObjAddr: 0xA130, symBinAddr: 0x10000AA80, symSize: 0x20 }
  - { offsetInCU: 0xE2BC, offset: 0xE2BC, size: 0x8, addend: 0x0, symName: __ZNKSt3__117__compressed_pairIP4ItemRNS_9allocatorIS1_EEE5firstB8ue170006Ev, symObjAddr: 0xA150, symBinAddr: 0x10000AAA0, symSize: 0x20 }
  - { offsetInCU: 0xE2E1, offset: 0xE2E1, size: 0x8, addend: 0x0, symName: __ZN4ItemC2ENSt3__112basic_stringIcNS0_11char_traitsIcEENS0_9allocatorIcEEEES6_idS6_, symObjAddr: 0xA170, symBinAddr: 0x10000AAC0, symSize: 0xF0 }
  - { offsetInCU: 0xE353, offset: 0xE353, size: 0x8, addend: 0x0, symName: __ZN4ItemD2Ev, symObjAddr: 0xA260, symBinAddr: 0x10000ABB0, symSize: 0xC0 }
  - { offsetInCU: 0xE37E, offset: 0xE37E, size: 0x8, addend: 0x0, symName: __ZN4Item9updateQtyEi, symObjAddr: 0xA320, symBinAddr: 0x10000AC70, symSize: 0x20 }
  - { offsetInCU: 0xE3B1, offset: 0xE3B1, size: 0x8, addend: 0x0, symName: __ZN4Item11updatePriceEd, symObjAddr: 0xA340, symBinAddr: 0x10000AC90, symSize: 0x30 }
  - { offsetInCU: 0xE3E4, offset: 0xE3E4, size: 0x8, addend: 0x0, symName: __ZNKSt3__111__wrap_iterIP4ItemEptB8ue170006Ev, symObjAddr: 0xA370, symBinAddr: 0x10000ACC0, symSize: 0x20 }
  - { offsetInCU: 0xE408, offset: 0xE408, size: 0x8, addend: 0x0, symName: __ZNSt3__16vectorI4ItemNS_9allocatorIS1_EEE5eraseB8ue170006ENS_11__wrap_iterIPKS1_EE, symObjAddr: 0xA390, symBinAddr: 0x10000ACE0, symSize: 0x90 }
  - { offsetInCU: 0xE466, offset: 0xE466, size: 0x8, addend: 0x0, symName: __ZNSt3__111__wrap_iterIPK4ItemEC1B8ue170006IPS1_EERKNS0_IT_EEPNS_9enable_ifIXsr14is_convertibleIS7_S3_EE5valueEvE4typeE, symObjAddr: 0xA420, symBinAddr: 0x10000AD70, symSize: 0x30 }
  - { offsetInCU: 0xE4B1, offset: 0xE4B1, size: 0x8, addend: 0x0, symName: __ZNKSt3__16vectorI4ItemNS_9allocatorIS1_EEE6cbeginB8ue170006Ev, symObjAddr: 0xA490, symBinAddr: 0x10000ADE0, symSize: 0x30 }
  - { offsetInCU: 0xE4D6, offset: 0xE4D6, size: 0x8, addend: 0x0, symName: __ZNSt3__16vectorI4ItemNS_9allocatorIS1_EEE17__destruct_at_endB8ue170006EPS1_, symObjAddr: 0xA4C0, symBinAddr: 0x10000AE10, symSize: 0x50 }
  - { offsetInCU: 0xE519, offset: 0xE519, size: 0x8, addend: 0x0, symName: __ZNSt3__16vectorI4ItemNS_9allocatorIS1_EEE11__make_iterB8ue170006EPS1_, symObjAddr: 0xA550, symBinAddr: 0x10000AEA0, symSize: 0x30 }
  - { offsetInCU: 0xE54D, offset: 0xE54D, size: 0x8, addend: 0x0, symName: __ZNKSt3__111__wrap_iterIPK4ItemE4baseB8ue170006Ev, symObjAddr: 0xA580, symBinAddr: 0x10000AED0, symSize: 0x20 }
  - { offsetInCU: 0xE571, offset: 0xE571, size: 0x8, addend: 0x0, symName: __ZNKSt3__16vectorI4ItemNS_9allocatorIS1_EEE5beginB8ue170006Ev, symObjAddr: 0xA5A0, symBinAddr: 0x10000AEF0, symSize: 0x30 }
  - { offsetInCU: 0xE598, offset: 0xE598, size: 0x8, addend: 0x0, symName: __ZNKSt3__16vectorI4ItemNS_9allocatorIS1_EEE11__make_iterB8ue170006EPKS1_, symObjAddr: 0xA5D0, symBinAddr: 0x10000AF20, symSize: 0x30 }
  - { offsetInCU: 0xE5CC, offset: 0xE5CC, size: 0x8, addend: 0x0, symName: __ZNSt3__111__wrap_iterIPK4ItemEC1B8ue170006ES3_, symObjAddr: 0xA600, symBinAddr: 0x10000AF50, symSize: 0x30 }
  - { offsetInCU: 0xE603, offset: 0xE603, size: 0x8, addend: 0x0, symName: __ZNSt3__111__wrap_iterIPK4ItemEC2B8ue170006ES3_, symObjAddr: 0xA630, symBinAddr: 0x10000AF80, symSize: 0x20 }
  - { offsetInCU: 0xE63A, offset: 0xE63A, size: 0x8, addend: 0x0, symName: __ZNSt3__16vectorI4ItemNS_9allocatorIS1_EEE22__base_destruct_at_endB8ue170006EPS1_, symObjAddr: 0xA650, symBinAddr: 0x10000AFA0, symSize: 0x90 }
  - { offsetInCU: 0xE67D, offset: 0xE67D, size: 0x8, addend: 0x0, symName: __ZNKSt3__16vectorI4ItemNS_9allocatorIS1_EEE17__annotate_shrinkB8ue170006Em, symObjAddr: 0xA6E0, symBinAddr: 0x10000B030, symSize: 0xA0 }
  - { offsetInCU: 0xE6D4, offset: 0xE6D4, size: 0x8, addend: 0x0, symName: __ZNKSt3__111__move_loopINS_17_ClassicAlgPolicyEEclB8ue170006IP4ItemS5_S5_EENS_4pairIT_T1_EES7_T0_S8_, symObjAddr: 0xA900, symBinAddr: 0x10000B250, symSize: 0x80 }
  - { offsetInCU: 0xE73E, offset: 0xE73E, size: 0x8, addend: 0x0, symName: __ZNSt3__18_IterOpsINS_17_ClassicAlgPolicyEE11__iter_moveB8ue170006IRP4ItemEENS_9enable_ifIXsr12is_referenceIDTdeclsr3stdE7declvalIRT_EEEEE5valueEDTclsr3stdE4movedeclsr3stdE7declvalIS9_EEEEE4typeEOS8_, symObjAddr: 0xAA50, symBinAddr: 0x10000B3A0, symSize: 0x20 }
  - { offsetInCU: 0xE76A, offset: 0xE76A, size: 0x8, addend: 0x0, symName: __ZN4ItemaSERKS_, symObjAddr: 0xAA70, symBinAddr: 0x10000B3C0, symSize: 0x80 }
  - { offsetInCU: 0xE79A, offset: 0xE79A, size: 0x8, addend: 0x0, symName: __ZNSt3__18_IterOpsINS_17_ClassicAlgPolicyEE25__validate_iter_referenceB8ue170006IRP4ItemEEvv, symObjAddr: 0xAAF0, symBinAddr: 0x10000B440, symSize: 0x10 }
  - { offsetInCU: 0xE7B8, offset: 0xE7B8, size: 0x8, addend: 0x0, symName: __ZNSt3__118__unwrap_iter_implIP4ItemLb1EE8__unwrapB8ue170006ES2_, symObjAddr: 0xAB00, symBinAddr: 0x10000B450, symSize: 0x20 }
  - { offsetInCU: 0xE7DB, offset: 0xE7DB, size: 0x8, addend: 0x0, symName: __ZNSt3__14pairIP4ItemS2_EC1B8ue170006ERKS2_S5_, symObjAddr: 0xAB20, symBinAddr: 0x10000B470, symSize: 0x30 }
  - { offsetInCU: 0xE820, offset: 0xE820, size: 0x8, addend: 0x0, symName: __ZNSt3__14pairIP4ItemS2_EC2B8ue170006ERKS2_S5_, symObjAddr: 0xAB50, symBinAddr: 0x10000B4A0, symSize: 0x30 }
  - { offsetInCU: 0xE865, offset: 0xE865, size: 0x8, addend: 0x0, symName: __ZNSt3__118__unwrap_iter_implIP4ItemLb1EE8__rewrapB8ue170006ES2_S2_, symObjAddr: 0xAB80, symBinAddr: 0x10000B4D0, symSize: 0x60 }
  - { offsetInCU: 0xE896, offset: 0xE896, size: 0x8, addend: 0x0, symName: __ZNSt3__111__wrap_iterIP4ItemEC1B8ue170006ES2_, symObjAddr: 0xABE0, symBinAddr: 0x10000B530, symSize: 0x30 }
  - { offsetInCU: 0xE8CD, offset: 0xE8CD, size: 0x8, addend: 0x0, symName: __ZNSt3__111__wrap_iterIP4ItemEC2B8ue170006ES2_, symObjAddr: 0xAC10, symBinAddr: 0x10000B560, symSize: 0x20 }
  - { offsetInCU: 0xE904, offset: 0xE904, size: 0x8, addend: 0x0, symName: __ZNSt3__111__wrap_iterIPK4ItemEC2B8ue170006IPS1_EERKNS0_IT_EEPNS_9enable_ifIXsr14is_convertibleIS7_S3_EE5valueEvE4typeE, symObjAddr: 0xAC30, symBinAddr: 0x10000B580, symSize: 0x40 }
  - { offsetInCU: 0xE94F, offset: 0xE94F, size: 0x8, addend: 0x0, symName: __ZNKSt3__111__wrap_iterIP4ItemE4baseB8ue170006Ev, symObjAddr: 0xAC70, symBinAddr: 0x10000B5C0, symSize: 0x20 }
  - { offsetInCU: 0xE974, offset: 0xE974, size: 0x8, addend: 0x0, symName: __ZNK4Item11getCategoryEv, symObjAddr: 0xAC90, symBinAddr: 0x10000B5E0, symSize: 0x30 }
  - { offsetInCU: 0xE998, offset: 0xE998, size: 0x8, addend: 0x0, symName: __ZNSt3__16vectorI4ItemNS_9allocatorIS1_EEEixB8ue170006Em, symObjAddr: 0xACC0, symBinAddr: 0x10000B610, symSize: 0x20 }
  - { offsetInCU: 0xE9CE, offset: 0xE9CE, size: 0x8, addend: 0x0, symName: __ZN8AirHouseD2Ev, symObjAddr: 0xAD70, symBinAddr: 0x10000B6C0, symSize: 0x20 }
  - { offsetInCU: 0xE9F9, offset: 0xE9F9, size: 0x8, addend: 0x0, symName: __ZNSt3__16vectorI4ItemNS_9allocatorIS1_EEED1B8ue170006Ev, symObjAddr: 0xAD90, symBinAddr: 0x10000B6E0, symSize: 0x20 }
  - { offsetInCU: 0xEA22, offset: 0xEA22, size: 0x8, addend: 0x0, symName: __ZNSt3__16vectorI4ItemNS_9allocatorIS1_EEED2B8ue170006Ev, symObjAddr: 0xADB0, symBinAddr: 0x10000B700, symSize: 0x30 }
  - { offsetInCU: 0xEA4B, offset: 0xEA4B, size: 0x8, addend: 0x0, symName: __ZNSt3__16vectorI4ItemNS_9allocatorIS1_EEE16__destroy_vectorC1B8ue170006ERS4_, symObjAddr: 0xADE0, symBinAddr: 0x10000B730, symSize: 0x30 }
  - { offsetInCU: 0xEA83, offset: 0xEA83, size: 0x8, addend: 0x0, symName: __ZNSt3__16vectorI4ItemNS_9allocatorIS1_EEE16__destroy_vectorclB8ue170006Ev, symObjAddr: 0xAE10, symBinAddr: 0x10000B760, symSize: 0x80 }
  - { offsetInCU: 0xEAA8, offset: 0xEAA8, size: 0x8, addend: 0x0, symName: __ZNSt3__16vectorI4ItemNS_9allocatorIS1_EEE16__destroy_vectorC2B8ue170006ERS4_, symObjAddr: 0xAE90, symBinAddr: 0x10000B7E0, symSize: 0x20 }
  - { offsetInCU: 0xEAE0, offset: 0xEAE0, size: 0x8, addend: 0x0, symName: __ZNSt3__16vectorI4ItemNS_9allocatorIS1_EEE7__clearB8ue170006Ev, symObjAddr: 0xAEB0, symBinAddr: 0x10000B800, symSize: 0x20 }
  - { offsetInCU: 0xEB05, offset: 0xEB05, size: 0x8, addend: 0x0, symName: __ZNSt3__112basic_stringIcNS_11char_traitsIcEENS_9allocatorIcEEE15__make_iteratorB8ue170006EPc, symObjAddr: 0xAED0, symBinAddr: 0x10000B820, symSize: 0x30 }
  - { offsetInCU: 0xEB39, offset: 0xEB39, size: 0x8, addend: 0x0, symName: __ZNSt3__112basic_stringIcNS_11char_traitsIcEENS_9allocatorIcEEE13__get_pointerB8ue170006Ev, symObjAddr: 0xAF00, symBinAddr: 0x10000B850, symSize: 0x50 }
  - { offsetInCU: 0xEB5E, offset: 0xEB5E, size: 0x8, addend: 0x0, symName: __ZNSt3__111__wrap_iterIPcEC1B8ue170006ES1_, symObjAddr: 0xAF50, symBinAddr: 0x10000B8A0, symSize: 0x30 }
  - { offsetInCU: 0xEB95, offset: 0xEB95, size: 0x8, addend: 0x0, symName: __ZNSt3__111__wrap_iterIPcEC2B8ue170006ES1_, symObjAddr: 0xAF80, symBinAddr: 0x10000B8D0, symSize: 0x20 }
  - { offsetInCU: 0xEBCC, offset: 0xEBCC, size: 0x8, addend: 0x0, symName: __ZNKSt3__112basic_stringIcNS_11char_traitsIcEENS_9allocatorIcEEE9__is_longB8ue170006Ev, symObjAddr: 0xAFA0, symBinAddr: 0x10000B8F0, symSize: 0x60 }
  - { offsetInCU: 0xEBF1, offset: 0xEBF1, size: 0x8, addend: 0x0, symName: __ZNSt3__112basic_stringIcNS_11char_traitsIcEENS_9allocatorIcEEE18__get_long_pointerB8ue170006Ev, symObjAddr: 0xB000, symBinAddr: 0x10000B950, symSize: 0x20 }
  - { offsetInCU: 0xEC16, offset: 0xEC16, size: 0x8, addend: 0x0, symName: __ZNSt3__112basic_stringIcNS_11char_traitsIcEENS_9allocatorIcEEE19__get_short_pointerB8ue170006Ev, symObjAddr: 0xB020, symBinAddr: 0x10000B970, symSize: 0x30 }
  - { offsetInCU: 0xEC3B, offset: 0xEC3B, size: 0x8, addend: 0x0, symName: __ZNKSt3__117__compressed_pairINS_12basic_stringIcNS_11char_traitsIcEENS_9allocatorIcEEE5__repES5_E5firstB8ue170006Ev, symObjAddr: 0xB050, symBinAddr: 0x10000B9A0, symSize: 0x20 }
  - { offsetInCU: 0xEC60, offset: 0xEC60, size: 0x8, addend: 0x0, symName: __ZNKSt3__122__compressed_pair_elemINS_12basic_stringIcNS_11char_traitsIcEENS_9allocatorIcEEE5__repELi0ELb0EE5__getB8ue170006Ev, symObjAddr: 0xB070, symBinAddr: 0x10000B9C0, symSize: 0x10 }
  - { offsetInCU: 0xEC85, offset: 0xEC85, size: 0x8, addend: 0x0, symName: __ZNSt3__117__compressed_pairINS_12basic_stringIcNS_11char_traitsIcEENS_9allocatorIcEEE5__repES5_E5firstB8ue170006Ev, symObjAddr: 0xB080, symBinAddr: 0x10000B9D0, symSize: 0x20 }
  - { offsetInCU: 0xECAA, offset: 0xECAA, size: 0x8, addend: 0x0, symName: __ZNSt3__122__compressed_pair_elemINS_12basic_stringIcNS_11char_traitsIcEENS_9allocatorIcEEE5__repELi0ELb0EE5__getB8ue170006Ev, symObjAddr: 0xB0A0, symBinAddr: 0x10000B9F0, symSize: 0x10 }
  - { offsetInCU: 0xECCF, offset: 0xECCF, size: 0x8, addend: 0x0, symName: __ZNSt3__114pointer_traitsIPcE10pointer_toB8ue170006ERc, symObjAddr: 0xB0B0, symBinAddr: 0x10000BA00, symSize: 0x10 }
  - { offsetInCU: 0xECF2, offset: 0xECF2, size: 0x8, addend: 0x0, symName: __ZNKSt3__112basic_stringIcNS_11char_traitsIcEENS_9allocatorIcEEE4sizeB8ue170006Ev, symObjAddr: 0xB0C0, symBinAddr: 0x10000BA10, symSize: 0x50 }
  - { offsetInCU: 0xED17, offset: 0xED17, size: 0x8, addend: 0x0, symName: __ZNKSt3__112basic_stringIcNS_11char_traitsIcEENS_9allocatorIcEEE15__get_long_sizeB8ue170006Ev, symObjAddr: 0xB110, symBinAddr: 0x10000BA60, symSize: 0x20 }
  - { offsetInCU: 0xED3C, offset: 0xED3C, size: 0x8, addend: 0x0, symName: __ZNKSt3__112basic_stringIcNS_11char_traitsIcEENS_9allocatorIcEEE16__get_short_sizeB8ue170006Ev, symObjAddr: 0xB130, symBinAddr: 0x10000BA80, symSize: 0x30 }
  - { offsetInCU: 0xED61, offset: 0xED61, size: 0x8, addend: 0x0, symName: __ZNKSt3__111__wrap_iterIPcE4baseB8ue170006Ev, symObjAddr: 0xB1A0, symBinAddr: 0x10000BAF0, symSize: 0x20 }
  - { offsetInCU: 0xED86, offset: 0xED86, size: 0x8, addend: 0x0, symName: __ZNSt3__111char_traitsIcE6lengthB8ue170006EPKc, symObjAddr: 0xB1C0, symBinAddr: 0x10000BB10, symSize: 0x40 }
  - { offsetInCU: 0xEDA9, offset: 0xEDA9, size: 0x8, addend: 0x0, symName: __ZNKSt3__112basic_stringIcNS_11char_traitsIcEENS_9allocatorIcEEE4dataB8ue170006Ev, symObjAddr: 0xB410, symBinAddr: 0x10000BD60, symSize: 0x30 }
  - { offsetInCU: 0xEDEC, offset: 0xEDEC, size: 0x8, addend: 0x0, symName: __ZNKSt3__113basic_ostreamIcNS_11char_traitsIcEEE6sentrycvbB8ue170006Ev, symObjAddr: 0xB440, symBinAddr: 0x10000BD90, symSize: 0x20 }
  - { offsetInCU: 0xEE11, offset: 0xEE11, size: 0x8, addend: 0x0, symName: __ZNSt3__119ostreambuf_iteratorIcNS_11char_traitsIcEEEC1B8ue170006ERNS_13basic_ostreamIcS2_EE, symObjAddr: 0xB680, symBinAddr: 0x10000BFD0, symSize: 0x30 }
  - { offsetInCU: 0xEE47, offset: 0xEE47, size: 0x8, addend: 0x0, symName: __ZNKSt3__18ios_base5flagsB8ue170006Ev, symObjAddr: 0xB6B0, symBinAddr: 0x10000C000, symSize: 0x20 }
  - { offsetInCU: 0xEE6D, offset: 0xEE6D, size: 0x8, addend: 0x0, symName: __ZNKSt3__19basic_iosIcNS_11char_traitsIcEEE4fillB8ue170006Ev, symObjAddr: 0xB6D0, symBinAddr: 0x10000C020, symSize: 0x70 }
  - { offsetInCU: 0xEE94, offset: 0xEE94, size: 0x8, addend: 0x0, symName: __ZNKSt3__119ostreambuf_iteratorIcNS_11char_traitsIcEEE6failedB8ue170006Ev, symObjAddr: 0xB740, symBinAddr: 0x10000C090, symSize: 0x20 }
  - { offsetInCU: 0xEEB9, offset: 0xEEB9, size: 0x8, addend: 0x0, symName: __ZNSt3__19basic_iosIcNS_11char_traitsIcEEE8setstateB8ue170006Ej, symObjAddr: 0xB760, symBinAddr: 0x10000C0B0, symSize: 0x30 }
  - { offsetInCU: 0xEEEC, offset: 0xEEEC, size: 0x8, addend: 0x0, symName: __ZNKSt3__18ios_base5widthB8ue170006Ev, symObjAddr: 0xB790, symBinAddr: 0x10000C0E0, symSize: 0x20 }
  - { offsetInCU: 0xEF13, offset: 0xEF13, size: 0x8, addend: 0x0, symName: __ZNSt3__115basic_streambufIcNS_11char_traitsIcEEE5sputnB8ue170006EPKcl, symObjAddr: 0xB7B0, symBinAddr: 0x10000C100, symSize: 0x30 }
  - { offsetInCU: 0xEF54, offset: 0xEF54, size: 0x8, addend: 0x0, symName: __ZNSt3__112basic_stringIcNS_11char_traitsIcEENS_9allocatorIcEEEC1B8ue170006Emc, symObjAddr: 0xB7E0, symBinAddr: 0x10000C130, symSize: 0x30 }
  - { offsetInCU: 0xEF9B, offset: 0xEF9B, size: 0x8, addend: 0x0, symName: __ZNSt3__112basic_stringIcNS_11char_traitsIcEENS_9allocatorIcEEEC2B8ue170006Emc, symObjAddr: 0xB810, symBinAddr: 0x10000C160, symSize: 0x50 }
  - { offsetInCU: 0xEFE2, offset: 0xEFE2, size: 0x8, addend: 0x0, symName: __ZNSt3__117__compressed_pairINS_12basic_stringIcNS_11char_traitsIcEENS_9allocatorIcEEE5__repES5_EC1B8ue170006INS_18__default_init_tagESA_EEOT_OT0_, symObjAddr: 0xB860, symBinAddr: 0x10000C1B0, symSize: 0x30 }
  - { offsetInCU: 0xF039, offset: 0xF039, size: 0x8, addend: 0x0, symName: __ZNSt3__117__compressed_pairINS_12basic_stringIcNS_11char_traitsIcEENS_9allocatorIcEEE5__repES5_EC2B8ue170006INS_18__default_init_tagESA_EEOT_OT0_, symObjAddr: 0xB890, symBinAddr: 0x10000C1E0, symSize: 0x30 }
  - { offsetInCU: 0xF090, offset: 0xF090, size: 0x8, addend: 0x0, symName: __ZNSt3__122__compressed_pair_elemINS_12basic_stringIcNS_11char_traitsIcEENS_9allocatorIcEEE5__repELi0ELb0EEC2B8ue170006ENS_18__default_init_tagE, symObjAddr: 0xB8C0, symBinAddr: 0x10000C210, symSize: 0x10 }
  - { offsetInCU: 0xF0C4, offset: 0xF0C4, size: 0x8, addend: 0x0, symName: __ZNSt3__122__compressed_pair_elemINS_9allocatorIcEELi1ELb1EEC2B8ue170006ENS_18__default_init_tagE, symObjAddr: 0xB8D0, symBinAddr: 0x10000C220, symSize: 0x20 }
  - { offsetInCU: 0xF0F8, offset: 0xF0F8, size: 0x8, addend: 0x0, symName: __ZNSt3__19allocatorIcEC2B8ue170006Ev, symObjAddr: 0xB8F0, symBinAddr: 0x10000C240, symSize: 0x20 }
  - { offsetInCU: 0xF121, offset: 0xF121, size: 0x8, addend: 0x0, symName: __ZNSt3__116__non_trivial_ifILb1ENS_9allocatorIcEEEC2B8ue170006Ev, symObjAddr: 0xB910, symBinAddr: 0x10000C260, symSize: 0x10 }
  - { offsetInCU: 0xF14A, offset: 0xF14A, size: 0x8, addend: 0x0, symName: __ZNSt3__119ostreambuf_iteratorIcNS_11char_traitsIcEEEC2B8ue170006ERNS_13basic_ostreamIcS2_EE, symObjAddr: 0xB920, symBinAddr: 0x10000C270, symSize: 0x60 }
  - { offsetInCU: 0xF180, offset: 0xF180, size: 0x8, addend: 0x0, symName: __ZNKSt3__19basic_iosIcNS_11char_traitsIcEEE5rdbufB8ue170006Ev, symObjAddr: 0xB980, symBinAddr: 0x10000C2D0, symSize: 0x20 }
  - { offsetInCU: 0xF1A7, offset: 0xF1A7, size: 0x8, addend: 0x0, symName: __ZNKSt3__18ios_base5rdbufB8ue170006Ev, symObjAddr: 0xB9A0, symBinAddr: 0x10000C2F0, symSize: 0x20 }
  - { offsetInCU: 0xF1CC, offset: 0xF1CC, size: 0x8, addend: 0x0, symName: __ZNSt3__111char_traitsIcE11eq_int_typeB8ue170006Eii, symObjAddr: 0xB9C0, symBinAddr: 0x10000C310, symSize: 0x20 }
  - { offsetInCU: 0xF1FE, offset: 0xF1FE, size: 0x8, addend: 0x0, symName: __ZNKSt3__19basic_iosIcNS_11char_traitsIcEEE5widenB8ue170006Ec, symObjAddr: 0xB9E0, symBinAddr: 0x10000C330, symSize: 0x90 }
  - { offsetInCU: 0xF261, offset: 0xF261, size: 0x8, addend: 0x0, symName: __ZNKSt3__15ctypeIcE5widenB8ue170006Ec, symObjAddr: 0xBAA0, symBinAddr: 0x10000C3F0, symSize: 0x30 }
  - { offsetInCU: 0xF294, offset: 0xF294, size: 0x8, addend: 0x0, symName: __ZNSt3__18ios_base8setstateB8ue170006Ej, symObjAddr: 0xBAD0, symBinAddr: 0x10000C420, symSize: 0x30 }
  - { offsetInCU: 0xF2CA, offset: 0xF2CA, size: 0x8, addend: 0x0, symName: __ZNKSt3__112basic_stringIcNS_11char_traitsIcEENS_9allocatorIcEEE13__get_pointerB8ue170006Ev, symObjAddr: 0xBB10, symBinAddr: 0x10000C460, symSize: 0x50 }
  - { offsetInCU: 0xF2EF, offset: 0xF2EF, size: 0x8, addend: 0x0, symName: __ZNKSt3__112basic_stringIcNS_11char_traitsIcEENS_9allocatorIcEEE18__get_long_pointerB8ue170006Ev, symObjAddr: 0xBB60, symBinAddr: 0x10000C4B0, symSize: 0x20 }
  - { offsetInCU: 0xF314, offset: 0xF314, size: 0x8, addend: 0x0, symName: __ZNKSt3__112basic_stringIcNS_11char_traitsIcEENS_9allocatorIcEEE19__get_short_pointerB8ue170006Ev, symObjAddr: 0xBB80, symBinAddr: 0x10000C4D0, symSize: 0x30 }
  - { offsetInCU: 0xF339, offset: 0xF339, size: 0x8, addend: 0x0, symName: __ZNSt3__114pointer_traitsIPKcE10pointer_toB8ue170006ERS1_, symObjAddr: 0xBBB0, symBinAddr: 0x10000C500, symSize: 0x10 }
  - { offsetInCU: 0xF35C, offset: 0xF35C, size: 0x8, addend: 0x0, symName: __ZNSt3__112basic_stringIcNS_11char_traitsIcEENS_9allocatorIcEEEC2B8ue170006ILi0EEEPKc, symObjAddr: 0xBBC0, symBinAddr: 0x10000C510, symSize: 0x50 }
  - { offsetInCU: 0xF39A, offset: 0xF39A, size: 0x8, addend: 0x0, symName: __ZNSt3__111char_traitsIcE7compareB8ue170006EPKcS3_m, symObjAddr: 0xBC50, symBinAddr: 0x10000C5A0, symSize: 0x60 }
  - { offsetInCU: 0xF3D9, offset: 0xF3D9, size: 0x8, addend: 0x0, symName: __ZNSt3__112basic_stringIcNS_11char_traitsIcEENS_9allocatorIcEEEC2B8ue170006Ev, symObjAddr: 0xBCB0, symBinAddr: 0x10000C600, symSize: 0x30 }
  - { offsetInCU: 0xF402, offset: 0xF402, size: 0x8, addend: 0x0, symName: __ZNSt3__112basic_stringIcNS_11char_traitsIcEENS_9allocatorIcEEE14__default_initB8ue170006Ev, symObjAddr: 0xBCE0, symBinAddr: 0x10000C630, symSize: 0xC0 }
  - { offsetInCU: 0xF454, offset: 0xF454, size: 0x8, addend: 0x0, symName: __ZNSt3__112basic_stringIcNS_11char_traitsIcEENS_9allocatorIcEEE11__recommendB8ue170006Em, symObjAddr: 0xBDA0, symBinAddr: 0x10000C6F0, symSize: 0x90 }
  - { offsetInCU: 0xF487, offset: 0xF487, size: 0x8, addend: 0x0, symName: __ZNSt3__116allocator_traitsINS_9allocatorIcEEE8allocateB8ue170006ERS2_m, symObjAddr: 0xBE30, symBinAddr: 0x10000C780, symSize: 0x30 }
  - { offsetInCU: 0xF4BA, offset: 0xF4BA, size: 0x8, addend: 0x0, symName: __ZNSt3__112basic_stringIcNS_11char_traitsIcEENS_9allocatorIcEEE7__allocB8ue170006Ev, symObjAddr: 0xBE60, symBinAddr: 0x10000C7B0, symSize: 0x20 }
  - { offsetInCU: 0xF4DF, offset: 0xF4DF, size: 0x8, addend: 0x0, symName: __ZNSt3__112basic_stringIcNS_11char_traitsIcEENS_9allocatorIcEEE16__begin_lifetimeB8ue170006EPcm, symObjAddr: 0xBE80, symBinAddr: 0x10000C7D0, symSize: 0x10 }
  - { offsetInCU: 0xF512, offset: 0xF512, size: 0x8, addend: 0x0, symName: __ZNSt3__112basic_stringIcNS_11char_traitsIcEENS_9allocatorIcEEE18__set_long_pointerB8ue170006EPc, symObjAddr: 0xBE90, symBinAddr: 0x10000C7E0, symSize: 0x30 }
  - { offsetInCU: 0xF546, offset: 0xF546, size: 0x8, addend: 0x0, symName: __ZNSt3__112basic_stringIcNS_11char_traitsIcEENS_9allocatorIcEEE14__set_long_capB8ue170006Em, symObjAddr: 0xBEC0, symBinAddr: 0x10000C810, symSize: 0x70 }
  - { offsetInCU: 0xF57A, offset: 0xF57A, size: 0x8, addend: 0x0, symName: __ZNSt3__112basic_stringIcNS_11char_traitsIcEENS_9allocatorIcEEE15__set_long_sizeB8ue170006Em, symObjAddr: 0xBF30, symBinAddr: 0x10000C880, symSize: 0x30 }
  - { offsetInCU: 0xF5AE, offset: 0xF5AE, size: 0x8, addend: 0x0, symName: __ZNSt3__112basic_stringIcNS_11char_traitsIcEENS_9allocatorIcEEE10__align_itB8ue170006ILm16EEEmm, symObjAddr: 0xBF60, symBinAddr: 0x10000C8B0, symSize: 0x20 }
  - { offsetInCU: 0xF5DC, offset: 0xF5DC, size: 0x8, addend: 0x0, symName: __ZNSt3__19allocatorIcE8allocateB8ue170006Em, symObjAddr: 0xBF80, symBinAddr: 0x10000C8D0, symSize: 0x80 }
  - { offsetInCU: 0xF619, offset: 0xF619, size: 0x8, addend: 0x0, symName: __ZNSt3__116allocator_traitsINS_9allocatorIcEEE8max_sizeB8ue170006IS2_vEEmRKS2_, symObjAddr: 0xC000, symBinAddr: 0x10000C950, symSize: 0x20 }
  - { offsetInCU: 0xF647, offset: 0xF647, size: 0x8, addend: 0x0, symName: __ZNKSt3__19allocatorIcE8max_sizeB8ue170006Ev, symObjAddr: 0xC020, symBinAddr: 0x10000C970, symSize: 0x20 }
  - { offsetInCU: 0xF66C, offset: 0xF66C, size: 0x8, addend: 0x0, symName: __ZNSt3__117__compressed_pairINS_12basic_stringIcNS_11char_traitsIcEENS_9allocatorIcEEE5__repES5_E6secondB8ue170006Ev, symObjAddr: 0xC040, symBinAddr: 0x10000C990, symSize: 0x20 }
  - { offsetInCU: 0xF691, offset: 0xF691, size: 0x8, addend: 0x0, symName: __ZNSt3__122__compressed_pair_elemINS_9allocatorIcEELi1ELb1EE5__getB8ue170006Ev, symObjAddr: 0xC060, symBinAddr: 0x10000C9B0, symSize: 0x10 }
  - { offsetInCU: 0xF748, offset: 0xF748, size: 0x8, addend: 0x0, symName: __ZNKSt3__113basic_istreamIcNS_11char_traitsIcEEE6sentrycvbB8ue170006Ev, symObjAddr: 0xC290, symBinAddr: 0x10000CBE0, symSize: 0x20 }
  - { offsetInCU: 0xF76C, offset: 0xF76C, size: 0x8, addend: 0x0, symName: __ZNSt3__112basic_stringIcNS_11char_traitsIcEENS_9allocatorIcEEE5clearB8ue170006Ev, symObjAddr: 0xC2B0, symBinAddr: 0x10000CC00, symSize: 0x80 }
  - { offsetInCU: 0xF793, offset: 0xF793, size: 0x8, addend: 0x0, symName: __ZNSt3__115basic_streambufIcNS_11char_traitsIcEEE6sbumpcB8ue170006Ev, symObjAddr: 0xC330, symBinAddr: 0x10000CC80, symSize: 0x60 }
  - { offsetInCU: 0xF7B8, offset: 0xF7B8, size: 0x8, addend: 0x0, symName: __ZNSt3__111char_traitsIcE12to_char_typeB8ue170006Ei, symObjAddr: 0xC390, symBinAddr: 0x10000CCE0, symSize: 0x10 }
  - { offsetInCU: 0xF7DB, offset: 0xF7DB, size: 0x8, addend: 0x0, symName: __ZNSt3__111char_traitsIcE2eqEcc, symObjAddr: 0xC3A0, symBinAddr: 0x10000CCF0, symSize: 0x30 }
  - { offsetInCU: 0xF80C, offset: 0xF80C, size: 0x8, addend: 0x0, symName: __ZNKSt3__112basic_stringIcNS_11char_traitsIcEENS_9allocatorIcEEE8max_sizeB8ue170006Ev, symObjAddr: 0xC3D0, symBinAddr: 0x10000CD20, symSize: 0xA0 }
  - { offsetInCU: 0xF85E, offset: 0xF85E, size: 0x8, addend: 0x0, symName: __ZNSt3__18ios_base18__setstate_nothrowB8ue170006Ej, symObjAddr: 0xC470, symBinAddr: 0x10000CDC0, symSize: 0x50 }
  - { offsetInCU: 0xF892, offset: 0xF892, size: 0x8, addend: 0x0, symName: __ZNKSt3__19basic_iosIcNS_11char_traitsIcEEE10exceptionsB8ue170006Ev, symObjAddr: 0xC4C0, symBinAddr: 0x10000CE10, symSize: 0x20 }
  - { offsetInCU: 0xF8B7, offset: 0xF8B7, size: 0x8, addend: 0x0, symName: __ZNSt3__111char_traitsIcE6assignB8ue170006ERcRKc, symObjAddr: 0xC4E0, symBinAddr: 0x10000CE30, symSize: 0x20 }
  - { offsetInCU: 0xF8E8, offset: 0xF8E8, size: 0x8, addend: 0x0, symName: __ZNSt3__112basic_stringIcNS_11char_traitsIcEENS_9allocatorIcEEE16__set_short_sizeB8ue170006Em, symObjAddr: 0xC500, symBinAddr: 0x10000CE50, symSize: 0x50 }
  - { offsetInCU: 0xF91C, offset: 0xF91C, size: 0x8, addend: 0x0, symName: __ZNSt3__111char_traitsIcE11to_int_typeB8ue170006Ec, symObjAddr: 0xC550, symBinAddr: 0x10000CEA0, symSize: 0x10 }
  - { offsetInCU: 0xF940, offset: 0xF940, size: 0x8, addend: 0x0, symName: __ZNKSt3__112basic_stringIcNS_11char_traitsIcEENS_9allocatorIcEEE7__allocB8ue170006Ev, symObjAddr: 0xC560, symBinAddr: 0x10000CEB0, symSize: 0x20 }
  - { offsetInCU: 0xF965, offset: 0xF965, size: 0x8, addend: 0x0, symName: __ZNSt3__114numeric_limitsImE3maxB8ue170006Ev, symObjAddr: 0xC580, symBinAddr: 0x10000CED0, symSize: 0x10 }
  - { offsetInCU: 0xF979, offset: 0xF979, size: 0x8, addend: 0x0, symName: __ZNKSt3__117__compressed_pairINS_12basic_stringIcNS_11char_traitsIcEENS_9allocatorIcEEE5__repES5_E6secondB8ue170006Ev, symObjAddr: 0xC590, symBinAddr: 0x10000CEE0, symSize: 0x20 }
  - { offsetInCU: 0xF99E, offset: 0xF99E, size: 0x8, addend: 0x0, symName: __ZNKSt3__122__compressed_pair_elemINS_9allocatorIcEELi1ELb1EE5__getB8ue170006Ev, symObjAddr: 0xC5B0, symBinAddr: 0x10000CF00, symSize: 0x10 }
  - { offsetInCU: 0xF9C3, offset: 0xF9C3, size: 0x8, addend: 0x0, symName: __ZNSt3__123__libcpp_numeric_limitsImLb1EE3maxB8ue170006Ev, symObjAddr: 0xC5C0, symBinAddr: 0x10000CF10, symSize: 0x10 }
  - { offsetInCU: 0xF9D6, offset: 0xF9D6, size: 0x8, addend: 0x0, symName: __ZNKSt3__18ios_base10exceptionsB8ue170006Ev, symObjAddr: 0xC5D0, symBinAddr: 0x10000CF20, symSize: 0x20 }
  - { offsetInCU: 0xF9FD, offset: 0xF9FD, size: 0x8, addend: 0x0, symName: __ZNSt3__115basic_streambufIcNS_11char_traitsIcEEE5sgetcB8ue170006Ev, symObjAddr: 0xC5F0, symBinAddr: 0x10000CF40, symSize: 0x50 }
  - { offsetInCU: 0xFA22, offset: 0xFA22, size: 0x8, addend: 0x0, symName: __ZNKSt3__15ctypeIcE2isB8ue170006Ejc, symObjAddr: 0xC640, symBinAddr: 0x10000CF90, symSize: 0x69 }
...
